	.text
	.file	"4_ckks_basics.cpp"
	.section	.text.startup,"ax",@progbits
	.p2align	4, 0x90                         # -- Begin function __cxx_global_var_init
	.type	__cxx_global_var_init,@function
__cxx_global_var_init:                  # @__cxx_global_var_init
	.cfi_startproc
# %bb.0:
	pushq	%rbp
	.cfi_def_cfa_offset 16
	.cfi_offset %rbp, -16
	movq	%rsp, %rbp
	.cfi_def_cfa_register %rbp
	leaq	_ZStL8__ioinit(%rip), %rdi
	callq	_ZNSt8ios_base4InitC1Ev@PLT
	movq	_ZNSt8ios_base4InitD1Ev@GOTPCREL(%rip), %rdi
	leaq	_ZStL8__ioinit(%rip), %rsi
	leaq	__dso_handle(%rip), %rdx
	callq	__cxa_atexit@PLT
	popq	%rbp
	.cfi_def_cfa %rsp, 8
	retq
.Lfunc_end0:
	.size	__cxx_global_var_init, .Lfunc_end0-__cxx_global_var_init
	.cfi_endproc
                                        # -- End function
	.text
	.globl	_Z9toBinary1B5cxx11m            # -- Begin function _Z9toBinary1B5cxx11m
	.p2align	4, 0x90
	.type	_Z9toBinary1B5cxx11m,@function
_Z9toBinary1B5cxx11m:                   # @_Z9toBinary1B5cxx11m
.Lfunc_begin0:
	.cfi_startproc
	.cfi_personality 155, DW.ref.__gxx_personality_v0
	.cfi_lsda 27, .Lexception0
# %bb.0:
	pushq	%rbp
	.cfi_def_cfa_offset 16
	.cfi_offset %rbp, -16
	movq	%rsp, %rbp
	.cfi_def_cfa_register %rbp
	subq	$160, %rsp
	movq	%rdi, -152(%rbp)                # 8-byte Spill
	movq	%rdi, %rax
	movq	%rax, -144(%rbp)                # 8-byte Spill
	movq	%rdi, -8(%rbp)
	movq	%rsi, -16(%rbp)
	cmpq	$0, -16(%rbp)
	jne	.LBB1_4
# %bb.1:
	leaq	-24(%rbp), %rdi
	movq	%rdi, -160(%rbp)                # 8-byte Spill
	callq	_ZNSaIcEC1Ev@PLT
	movq	-152(%rbp), %rdi                # 8-byte Reload
	movq	-160(%rbp), %rdx                # 8-byte Reload
.Ltmp5:
	leaq	.L.str(%rip), %rsi
	callq	_ZNSt7__cxx1112basic_stringIcSt11char_traitsIcESaIcEEC2IS3_EEPKcRKS3_
.Ltmp6:
	jmp	.LBB1_2
.LBB1_2:
	leaq	-24(%rbp), %rdi
	callq	_ZNSaIcED1Ev@PLT
	jmp	.LBB1_14
.LBB1_3:
.Ltmp7:
	movq	%rax, %rcx
	movl	%edx, %eax
	movq	%rcx, -32(%rbp)
	movl	%eax, -36(%rbp)
	leaq	-24(%rbp), %rdi
	callq	_ZNSaIcED1Ev@PLT
	jmp	.LBB1_15
.LBB1_4:
	leaq	-72(%rbp), %rdi
	callq	_ZNSt7__cxx1112basic_stringIcSt11char_traitsIcESaIcEEC1Ev@PLT
.LBB1_5:                                # =>This Inner Loop Header: Depth=1
	cmpq	$0, -16(%rbp)
	jbe	.LBB1_13
# %bb.6:                                #   in Loop: Header=BB1_5 Depth=1
	movq	-16(%rbp), %rax
	andq	$1, %rax
	cmpq	$0, %rax
	je	.LBB1_10
# %bb.7:                                #   in Loop: Header=BB1_5 Depth=1
.Ltmp2:
	leaq	.L.str.1(%rip), %rsi
	leaq	-104(%rbp), %rdi
	leaq	-72(%rbp), %rdx
	callq	_ZStplIcSt11char_traitsIcESaIcEENSt7__cxx1112basic_stringIT_T0_T1_EEPKS5_RKS8_
.Ltmp3:
	jmp	.LBB1_8
.LBB1_8:                                #   in Loop: Header=BB1_5 Depth=1
	leaq	-72(%rbp), %rdi
	leaq	-104(%rbp), %rsi
	callq	_ZNSt7__cxx1112basic_stringIcSt11char_traitsIcESaIcEEaSEOS4_@PLT
	leaq	-104(%rbp), %rdi
	callq	_ZNSt7__cxx1112basic_stringIcSt11char_traitsIcESaIcEED1Ev@PLT
	jmp	.LBB1_12
.LBB1_9:
.Ltmp4:
	movq	%rax, %rcx
	movl	%edx, %eax
	movq	%rcx, -32(%rbp)
	movl	%eax, -36(%rbp)
	leaq	-72(%rbp), %rdi
	callq	_ZNSt7__cxx1112basic_stringIcSt11char_traitsIcESaIcEED1Ev@PLT
	jmp	.LBB1_15
.LBB1_10:                               #   in Loop: Header=BB1_5 Depth=1
.Ltmp0:
	leaq	.L.str(%rip), %rsi
	leaq	-136(%rbp), %rdi
	leaq	-72(%rbp), %rdx
	callq	_ZStplIcSt11char_traitsIcESaIcEENSt7__cxx1112basic_stringIT_T0_T1_EEPKS5_RKS8_
.Ltmp1:
	jmp	.LBB1_11
.LBB1_11:                               #   in Loop: Header=BB1_5 Depth=1
	leaq	-72(%rbp), %rdi
	leaq	-136(%rbp), %rsi
	callq	_ZNSt7__cxx1112basic_stringIcSt11char_traitsIcESaIcEEaSEOS4_@PLT
	leaq	-136(%rbp), %rdi
	callq	_ZNSt7__cxx1112basic_stringIcSt11char_traitsIcESaIcEED1Ev@PLT
.LBB1_12:                               #   in Loop: Header=BB1_5 Depth=1
	movq	-16(%rbp), %rax
	shrq	$1, %rax
	movq	%rax, -16(%rbp)
	jmp	.LBB1_5
.LBB1_13:
	movq	-152(%rbp), %rdi                # 8-byte Reload
	leaq	-72(%rbp), %rsi
	callq	_ZNSt7__cxx1112basic_stringIcSt11char_traitsIcESaIcEEC1EOS4_@PLT
	leaq	-72(%rbp), %rdi
	callq	_ZNSt7__cxx1112basic_stringIcSt11char_traitsIcESaIcEED1Ev@PLT
.LBB1_14:
	movq	-144(%rbp), %rax                # 8-byte Reload
	addq	$160, %rsp
	popq	%rbp
	.cfi_def_cfa %rsp, 8
	retq
.LBB1_15:
	.cfi_def_cfa %rbp, 16
	movq	-32(%rbp), %rdi
	callq	_Unwind_Resume@PLT
.Lfunc_end1:
	.size	_Z9toBinary1B5cxx11m, .Lfunc_end1-_Z9toBinary1B5cxx11m
	.cfi_endproc
	.section	.gcc_except_table,"a",@progbits
	.p2align	2
GCC_except_table1:
.Lexception0:
	.byte	255                             # @LPStart Encoding = omit
	.byte	255                             # @TType Encoding = omit
	.byte	1                               # Call site Encoding = uleb128
	.uleb128 .Lcst_end0-.Lcst_begin0
.Lcst_begin0:
	.uleb128 .Ltmp5-.Lfunc_begin0           # >> Call Site 1 <<
	.uleb128 .Ltmp6-.Ltmp5                  #   Call between .Ltmp5 and .Ltmp6
	.uleb128 .Ltmp7-.Lfunc_begin0           #     jumps to .Ltmp7
	.byte	0                               #   On action: cleanup
	.uleb128 .Ltmp2-.Lfunc_begin0           # >> Call Site 2 <<
	.uleb128 .Ltmp1-.Ltmp2                  #   Call between .Ltmp2 and .Ltmp1
	.uleb128 .Ltmp4-.Lfunc_begin0           #     jumps to .Ltmp4
	.byte	0                               #   On action: cleanup
	.uleb128 .Ltmp1-.Lfunc_begin0           # >> Call Site 3 <<
	.uleb128 .Lfunc_end1-.Ltmp1             #   Call between .Ltmp1 and .Lfunc_end1
	.byte	0                               #     has no landing pad
	.byte	0                               #   On action: cleanup
.Lcst_end0:
	.p2align	2
                                        # -- End function
	.section	.text._ZNSt7__cxx1112basic_stringIcSt11char_traitsIcESaIcEEC2IS3_EEPKcRKS3_,"axG",@progbits,_ZNSt7__cxx1112basic_stringIcSt11char_traitsIcESaIcEEC2IS3_EEPKcRKS3_,comdat
	.weak	_ZNSt7__cxx1112basic_stringIcSt11char_traitsIcESaIcEEC2IS3_EEPKcRKS3_ # -- Begin function _ZNSt7__cxx1112basic_stringIcSt11char_traitsIcESaIcEEC2IS3_EEPKcRKS3_
	.p2align	4, 0x90
	.type	_ZNSt7__cxx1112basic_stringIcSt11char_traitsIcESaIcEEC2IS3_EEPKcRKS3_,@function
_ZNSt7__cxx1112basic_stringIcSt11char_traitsIcESaIcEEC2IS3_EEPKcRKS3_: # @_ZNSt7__cxx1112basic_stringIcSt11char_traitsIcESaIcEEC2IS3_EEPKcRKS3_
.Lfunc_begin1:
	.cfi_startproc
	.cfi_personality 155, DW.ref.__gxx_personality_v0
	.cfi_lsda 27, .Lexception1
# %bb.0:
	pushq	%rbp
	.cfi_def_cfa_offset 16
	.cfi_offset %rbp, -16
	movq	%rsp, %rbp
	.cfi_def_cfa_register %rbp
	subq	$96, %rsp
	movq	%rdi, -8(%rbp)
	movq	%rsi, -16(%rbp)
	movq	%rdx, -24(%rbp)
	movq	-8(%rbp), %rdi
	movq	%rdi, -64(%rbp)                 # 8-byte Spill
	callq	_ZNSt7__cxx1112basic_stringIcSt11char_traitsIcESaIcEE13_M_local_dataEv@PLT
	movq	-64(%rbp), %rdi                 # 8-byte Reload
	movq	%rax, %rsi
	movq	-24(%rbp), %rdx
	callq	_ZNSt7__cxx1112basic_stringIcSt11char_traitsIcESaIcEE12_Alloc_hiderC1EPcRKS3_@PLT
	cmpq	$0, -16(%rbp)
	je	.LBB2_3
# %bb.1:
	movq	-16(%rbp), %rdi
	movq	%rdi, -80(%rbp)                 # 8-byte Spill
.Ltmp8:
	callq	_ZNSt11char_traitsIcE6lengthEPKc
.Ltmp9:
	movq	%rax, -72(%rbp)                 # 8-byte Spill
	jmp	.LBB2_2
.LBB2_2:
	movq	-72(%rbp), %rcx                 # 8-byte Reload
	movq	-80(%rbp), %rax                 # 8-byte Reload
	addq	%rcx, %rax
	movq	%rax, -88(%rbp)                 # 8-byte Spill
	jmp	.LBB2_4
.LBB2_3:
	movl	$1, %eax
	movq	%rax, -88(%rbp)                 # 8-byte Spill
	jmp	.LBB2_4
.LBB2_4:
	movq	-64(%rbp), %rdi                 # 8-byte Reload
	movq	-88(%rbp), %rax                 # 8-byte Reload
	movq	%rax, -32(%rbp)
	movq	-16(%rbp), %rsi
	movq	-32(%rbp), %rdx
.Ltmp10:
	callq	_ZNSt7__cxx1112basic_stringIcSt11char_traitsIcESaIcEE12_M_constructIPKcEEvT_S8_St20forward_iterator_tag
.Ltmp11:
	jmp	.LBB2_5
.LBB2_5:
	addq	$96, %rsp
	popq	%rbp
	.cfi_def_cfa %rsp, 8
	retq
.LBB2_6:
	.cfi_def_cfa %rbp, 16
.Ltmp12:
	movq	-64(%rbp), %rdi                 # 8-byte Reload
	movq	%rax, %rcx
	movl	%edx, %eax
	movq	%rcx, -40(%rbp)
	movl	%eax, -44(%rbp)
	callq	_ZNSt7__cxx1112basic_stringIcSt11char_traitsIcESaIcEE12_Alloc_hiderD2Ev
# %bb.7:
	movq	-40(%rbp), %rdi
	callq	_Unwind_Resume@PLT
.Lfunc_end2:
	.size	_ZNSt7__cxx1112basic_stringIcSt11char_traitsIcESaIcEEC2IS3_EEPKcRKS3_, .Lfunc_end2-_ZNSt7__cxx1112basic_stringIcSt11char_traitsIcESaIcEEC2IS3_EEPKcRKS3_
	.cfi_endproc
	.section	.gcc_except_table._ZNSt7__cxx1112basic_stringIcSt11char_traitsIcESaIcEEC2IS3_EEPKcRKS3_,"aG",@progbits,_ZNSt7__cxx1112basic_stringIcSt11char_traitsIcESaIcEEC2IS3_EEPKcRKS3_,comdat
	.p2align	2
GCC_except_table2:
.Lexception1:
	.byte	255                             # @LPStart Encoding = omit
	.byte	255                             # @TType Encoding = omit
	.byte	1                               # Call site Encoding = uleb128
	.uleb128 .Lcst_end1-.Lcst_begin1
.Lcst_begin1:
	.uleb128 .Lfunc_begin1-.Lfunc_begin1    # >> Call Site 1 <<
	.uleb128 .Ltmp8-.Lfunc_begin1           #   Call between .Lfunc_begin1 and .Ltmp8
	.byte	0                               #     has no landing pad
	.byte	0                               #   On action: cleanup
	.uleb128 .Ltmp8-.Lfunc_begin1           # >> Call Site 2 <<
	.uleb128 .Ltmp11-.Ltmp8                 #   Call between .Ltmp8 and .Ltmp11
	.uleb128 .Ltmp12-.Lfunc_begin1          #     jumps to .Ltmp12
	.byte	0                               #   On action: cleanup
	.uleb128 .Ltmp11-.Lfunc_begin1          # >> Call Site 3 <<
	.uleb128 .Lfunc_end2-.Ltmp11            #   Call between .Ltmp11 and .Lfunc_end2
	.byte	0                               #     has no landing pad
	.byte	0                               #   On action: cleanup
.Lcst_end1:
	.p2align	2
                                        # -- End function
	.section	.text._ZStplIcSt11char_traitsIcESaIcEENSt7__cxx1112basic_stringIT_T0_T1_EEPKS5_RKS8_,"axG",@progbits,_ZStplIcSt11char_traitsIcESaIcEENSt7__cxx1112basic_stringIT_T0_T1_EEPKS5_RKS8_,comdat
	.weak	_ZStplIcSt11char_traitsIcESaIcEENSt7__cxx1112basic_stringIT_T0_T1_EEPKS5_RKS8_ # -- Begin function _ZStplIcSt11char_traitsIcESaIcEENSt7__cxx1112basic_stringIT_T0_T1_EEPKS5_RKS8_
	.p2align	4, 0x90
	.type	_ZStplIcSt11char_traitsIcESaIcEENSt7__cxx1112basic_stringIT_T0_T1_EEPKS5_RKS8_,@function
_ZStplIcSt11char_traitsIcESaIcEENSt7__cxx1112basic_stringIT_T0_T1_EEPKS5_RKS8_: # @_ZStplIcSt11char_traitsIcESaIcEENSt7__cxx1112basic_stringIT_T0_T1_EEPKS5_RKS8_
.Lfunc_begin2:
	.cfi_startproc
	.cfi_personality 155, DW.ref.__gxx_personality_v0
	.cfi_lsda 27, .Lexception2
# %bb.0:
	pushq	%rbp
	.cfi_def_cfa_offset 16
	.cfi_offset %rbp, -16
	movq	%rsp, %rbp
	.cfi_def_cfa_register %rbp
	subq	$112, %rsp
	movq	%rdi, -88(%rbp)                 # 8-byte Spill
	movq	%rdi, %rax
	movq	%rax, -80(%rbp)                 # 8-byte Spill
	movq	%rdi, -8(%rbp)
	movq	%rsi, -16(%rbp)
	movq	%rdx, -24(%rbp)
	movq	-16(%rbp), %rdi
	callq	_ZNSt11char_traitsIcE6lengthEPKc
	movq	%rax, -32(%rbp)
	movb	$0, -33(%rbp)
	movq	-24(%rbp), %rsi
	leaq	-48(%rbp), %rdi
	movq	%rdi, -72(%rbp)                 # 8-byte Spill
	callq	_ZNKSt7__cxx1112basic_stringIcSt11char_traitsIcESaIcEE13get_allocatorEv@PLT
	movq	-72(%rbp), %rsi                 # 8-byte Reload
.Ltmp13:
	leaq	-40(%rbp), %rdi
	callq	_ZN9__gnu_cxx14__alloc_traitsISaIcEcE17_S_select_on_copyERKS1_
.Ltmp14:
	jmp	.LBB3_1
.LBB3_1:
	movq	-88(%rbp), %rdi                 # 8-byte Reload
	leaq	-40(%rbp), %rsi
	movq	%rsi, -104(%rbp)                # 8-byte Spill
	callq	_ZNSt7__cxx1112basic_stringIcSt11char_traitsIcESaIcEEC1ERKS3_@PLT
	movq	-104(%rbp), %rdi                # 8-byte Reload
	callq	_ZNSaIcED1Ev@PLT
	leaq	-48(%rbp), %rdi
	callq	_ZNSaIcED1Ev@PLT
	movq	-32(%rbp), %rax
	movq	%rax, -96(%rbp)                 # 8-byte Spill
	movq	-24(%rbp), %rdi
	callq	_ZNKSt7__cxx1112basic_stringIcSt11char_traitsIcESaIcEE4sizeEv@PLT
	movq	-96(%rbp), %rsi                 # 8-byte Reload
	movq	-88(%rbp), %rdi                 # 8-byte Reload
	addq	%rax, %rsi
.Ltmp16:
	callq	_ZNSt7__cxx1112basic_stringIcSt11char_traitsIcESaIcEE7reserveEm@PLT
.Ltmp17:
	jmp	.LBB3_2
.LBB3_2:
	movq	-88(%rbp), %rdi                 # 8-byte Reload
	movq	-16(%rbp), %rsi
	movq	-32(%rbp), %rdx
.Ltmp18:
	callq	_ZNSt7__cxx1112basic_stringIcSt11char_traitsIcESaIcEE6appendEPKcm@PLT
.Ltmp19:
	jmp	.LBB3_3
.LBB3_3:
	movq	-88(%rbp), %rdi                 # 8-byte Reload
	movq	-24(%rbp), %rsi
.Ltmp20:
	callq	_ZNSt7__cxx1112basic_stringIcSt11char_traitsIcESaIcEE6appendERKS4_@PLT
.Ltmp21:
	jmp	.LBB3_4
.LBB3_4:
	movb	$1, -33(%rbp)
	testb	$1, -33(%rbp)
	jne	.LBB3_8
	jmp	.LBB3_7
.LBB3_5:
.Ltmp15:
	movq	%rax, %rcx
	movl	%edx, %eax
	movq	%rcx, -56(%rbp)
	movl	%eax, -60(%rbp)
	leaq	-48(%rbp), %rdi
	callq	_ZNSaIcED1Ev@PLT
	jmp	.LBB3_9
.LBB3_6:
.Ltmp22:
	movq	-88(%rbp), %rdi                 # 8-byte Reload
	movq	%rax, %rcx
	movl	%edx, %eax
	movq	%rcx, -56(%rbp)
	movl	%eax, -60(%rbp)
	callq	_ZNSt7__cxx1112basic_stringIcSt11char_traitsIcESaIcEED1Ev@PLT
	jmp	.LBB3_9
.LBB3_7:
	movq	-88(%rbp), %rdi                 # 8-byte Reload
	callq	_ZNSt7__cxx1112basic_stringIcSt11char_traitsIcESaIcEED1Ev@PLT
.LBB3_8:
	movq	-80(%rbp), %rax                 # 8-byte Reload
	addq	$112, %rsp
	popq	%rbp
	.cfi_def_cfa %rsp, 8
	retq
.LBB3_9:
	.cfi_def_cfa %rbp, 16
	movq	-56(%rbp), %rdi
	callq	_Unwind_Resume@PLT
.Lfunc_end3:
	.size	_ZStplIcSt11char_traitsIcESaIcEENSt7__cxx1112basic_stringIT_T0_T1_EEPKS5_RKS8_, .Lfunc_end3-_ZStplIcSt11char_traitsIcESaIcEENSt7__cxx1112basic_stringIT_T0_T1_EEPKS5_RKS8_
	.cfi_endproc
	.section	.gcc_except_table._ZStplIcSt11char_traitsIcESaIcEENSt7__cxx1112basic_stringIT_T0_T1_EEPKS5_RKS8_,"aG",@progbits,_ZStplIcSt11char_traitsIcESaIcEENSt7__cxx1112basic_stringIT_T0_T1_EEPKS5_RKS8_,comdat
	.p2align	2
GCC_except_table3:
.Lexception2:
	.byte	255                             # @LPStart Encoding = omit
	.byte	255                             # @TType Encoding = omit
	.byte	1                               # Call site Encoding = uleb128
	.uleb128 .Lcst_end2-.Lcst_begin2
.Lcst_begin2:
	.uleb128 .Lfunc_begin2-.Lfunc_begin2    # >> Call Site 1 <<
	.uleb128 .Ltmp13-.Lfunc_begin2          #   Call between .Lfunc_begin2 and .Ltmp13
	.byte	0                               #     has no landing pad
	.byte	0                               #   On action: cleanup
	.uleb128 .Ltmp13-.Lfunc_begin2          # >> Call Site 2 <<
	.uleb128 .Ltmp14-.Ltmp13                #   Call between .Ltmp13 and .Ltmp14
	.uleb128 .Ltmp15-.Lfunc_begin2          #     jumps to .Ltmp15
	.byte	0                               #   On action: cleanup
	.uleb128 .Ltmp16-.Lfunc_begin2          # >> Call Site 3 <<
	.uleb128 .Ltmp21-.Ltmp16                #   Call between .Ltmp16 and .Ltmp21
	.uleb128 .Ltmp22-.Lfunc_begin2          #     jumps to .Ltmp22
	.byte	0                               #   On action: cleanup
	.uleb128 .Ltmp21-.Lfunc_begin2          # >> Call Site 4 <<
	.uleb128 .Lfunc_end3-.Ltmp21            #   Call between .Ltmp21 and .Lfunc_end3
	.byte	0                               #     has no landing pad
	.byte	0                               #   On action: cleanup
.Lcst_end2:
	.p2align	2
                                        # -- End function
	.section	.rodata.cst8,"aM",@progbits,8
	.p2align	3                               # -- Begin function _Z10toDecimal1NSt7__cxx1112basic_stringIcSt11char_traitsIcESaIcEEE
.LCPI4_0:
	.quad	0x43e0000000000000              # double 9.2233720368547758E+18
	.text
	.globl	_Z10toDecimal1NSt7__cxx1112basic_stringIcSt11char_traitsIcESaIcEEE
	.p2align	4, 0x90
	.type	_Z10toDecimal1NSt7__cxx1112basic_stringIcSt11char_traitsIcESaIcEEE,@function
_Z10toDecimal1NSt7__cxx1112basic_stringIcSt11char_traitsIcESaIcEEE: # @_Z10toDecimal1NSt7__cxx1112basic_stringIcSt11char_traitsIcESaIcEEE
	.cfi_startproc
# %bb.0:
	pushq	%rbp
	.cfi_def_cfa_offset 16
	.cfi_offset %rbp, -16
	movq	%rsp, %rbp
	.cfi_def_cfa_register %rbp
	subq	$48, %rsp
	movq	%rdi, -40(%rbp)                 # 8-byte Spill
	movl	$0, -8(%rbp)
	movq	$0, -24(%rbp)
	callq	_ZNKSt7__cxx1112basic_stringIcSt11char_traitsIcESaIcEE4sizeEv@PLT
                                        # kill: def $eax killed $eax killed $rax
	movl	%eax, -4(%rbp)
	movl	-4(%rbp), %eax
	subl	$1, %eax
	movl	%eax, -12(%rbp)
	movl	$0, -8(%rbp)
	movl	-4(%rbp), %eax
	subl	$1, %eax
	movl	%eax, -12(%rbp)
.LBB4_1:                                # =>This Inner Loop Header: Depth=1
	cmpl	$0, -12(%rbp)
	jl	.LBB4_6
# %bb.2:                                #   in Loop: Header=BB4_1 Depth=1
	movq	-40(%rbp), %rdi                 # 8-byte Reload
	movslq	-12(%rbp), %rsi
	callq	_ZNSt7__cxx1112basic_stringIcSt11char_traitsIcESaIcEEixEm@PLT
	movsbl	(%rax), %eax
	cmpl	$49, %eax
	jne	.LBB4_4
# %bb.3:                                #   in Loop: Header=BB4_1 Depth=1
	movl	-8(%rbp), %esi
	movl	$2, %edi
	callq	_ZSt3powIiiEN9__gnu_cxx11__promote_2IT_T0_NS0_9__promoteIS2_Xsr3std12__is_integerIS2_EE7__valueEE6__typeENS4_IS3_Xsr3std12__is_integerIS3_EE7__valueEE6__typeEE6__typeES2_S3_
	movaps	%xmm0, %xmm1
	cvttsd2si	%xmm1, %rax
	movq	%rax, %rdx
	sarq	$63, %rdx
	movsd	.LCPI4_0(%rip), %xmm1           # xmm1 = mem[0],zero
	subsd	%xmm1, %xmm0
	cvttsd2si	%xmm0, %rcx
	andq	%rdx, %rcx
	orq	%rcx, %rax
	movq	%rax, -32(%rbp)
	movq	-24(%rbp), %rax
	addq	-32(%rbp), %rax
	movq	%rax, -24(%rbp)
.LBB4_4:                                #   in Loop: Header=BB4_1 Depth=1
	movl	-8(%rbp), %eax
	addl	$1, %eax
	movl	%eax, -8(%rbp)
# %bb.5:                                #   in Loop: Header=BB4_1 Depth=1
	movl	-12(%rbp), %eax
	addl	$-1, %eax
	movl	%eax, -12(%rbp)
	jmp	.LBB4_1
.LBB4_6:
	movq	-24(%rbp), %rax
	addq	$48, %rsp
	popq	%rbp
	.cfi_def_cfa %rsp, 8
	retq
.Lfunc_end4:
	.size	_Z10toDecimal1NSt7__cxx1112basic_stringIcSt11char_traitsIcESaIcEEE, .Lfunc_end4-_Z10toDecimal1NSt7__cxx1112basic_stringIcSt11char_traitsIcESaIcEEE
	.cfi_endproc
                                        # -- End function
	.section	.text._ZSt3powIiiEN9__gnu_cxx11__promote_2IT_T0_NS0_9__promoteIS2_Xsr3std12__is_integerIS2_EE7__valueEE6__typeENS4_IS3_Xsr3std12__is_integerIS3_EE7__valueEE6__typeEE6__typeES2_S3_,"axG",@progbits,_ZSt3powIiiEN9__gnu_cxx11__promote_2IT_T0_NS0_9__promoteIS2_Xsr3std12__is_integerIS2_EE7__valueEE6__typeENS4_IS3_Xsr3std12__is_integerIS3_EE7__valueEE6__typeEE6__typeES2_S3_,comdat
	.weak	_ZSt3powIiiEN9__gnu_cxx11__promote_2IT_T0_NS0_9__promoteIS2_Xsr3std12__is_integerIS2_EE7__valueEE6__typeENS4_IS3_Xsr3std12__is_integerIS3_EE7__valueEE6__typeEE6__typeES2_S3_ # -- Begin function _ZSt3powIiiEN9__gnu_cxx11__promote_2IT_T0_NS0_9__promoteIS2_Xsr3std12__is_integerIS2_EE7__valueEE6__typeENS4_IS3_Xsr3std12__is_integerIS3_EE7__valueEE6__typeEE6__typeES2_S3_
	.p2align	4, 0x90
	.type	_ZSt3powIiiEN9__gnu_cxx11__promote_2IT_T0_NS0_9__promoteIS2_Xsr3std12__is_integerIS2_EE7__valueEE6__typeENS4_IS3_Xsr3std12__is_integerIS3_EE7__valueEE6__typeEE6__typeES2_S3_,@function
_ZSt3powIiiEN9__gnu_cxx11__promote_2IT_T0_NS0_9__promoteIS2_Xsr3std12__is_integerIS2_EE7__valueEE6__typeENS4_IS3_Xsr3std12__is_integerIS3_EE7__valueEE6__typeEE6__typeES2_S3_: # @_ZSt3powIiiEN9__gnu_cxx11__promote_2IT_T0_NS0_9__promoteIS2_Xsr3std12__is_integerIS2_EE7__valueEE6__typeENS4_IS3_Xsr3std12__is_integerIS3_EE7__valueEE6__typeEE6__typeES2_S3_
	.cfi_startproc
# %bb.0:
	pushq	%rbp
	.cfi_def_cfa_offset 16
	.cfi_offset %rbp, -16
	movq	%rsp, %rbp
	.cfi_def_cfa_register %rbp
	subq	$16, %rsp
	movl	%edi, -4(%rbp)
	movl	%esi, -8(%rbp)
	cvtsi2sdl	-4(%rbp), %xmm0
	cvtsi2sdl	-8(%rbp), %xmm1
	callq	pow@PLT
	addq	$16, %rsp
	popq	%rbp
	.cfi_def_cfa %rsp, 8
	retq
.Lfunc_end5:
	.size	_ZSt3powIiiEN9__gnu_cxx11__promote_2IT_T0_NS0_9__promoteIS2_Xsr3std12__is_integerIS2_EE7__valueEE6__typeENS4_IS3_Xsr3std12__is_integerIS3_EE7__valueEE6__typeEE6__typeES2_S3_, .Lfunc_end5-_ZSt3powIiiEN9__gnu_cxx11__promote_2IT_T0_NS0_9__promoteIS2_Xsr3std12__is_integerIS2_EE7__valueEE6__typeENS4_IS3_Xsr3std12__is_integerIS3_EE7__valueEE6__typeEE6__typeES2_S3_
	.cfi_endproc
                                        # -- End function
	.section	.rodata.cst8,"aM",@progbits,8
	.p2align	3                               # -- Begin function _Z19example_ckks_basicsv
.LCPI6_0:
	.quad	0x4000000000000000              # double 2
.LCPI6_1:
	.quad	0x3ff0000000000000              # double 1
.LCPI6_4:
	.quad	0x400921fb53c8d4f1              # double 3.1415926500000002
.LCPI6_5:
	.quad	0x3fd999999999999a              # double 0.40000000000000002
	.section	.rodata.cst16,"aM",@progbits,16
	.p2align	4
.LCPI6_2:
	.long	1127219200                      # 0x43300000
	.long	1160773632                      # 0x45300000
	.long	0                               # 0x0
	.long	0                               # 0x0
.LCPI6_3:
	.quad	0x4330000000000000              # double 4503599627370496
	.quad	0x4530000000000000              # double 1.9342813113834067E+25
	.text
	.globl	_Z19example_ckks_basicsv
	.p2align	4, 0x90
	.type	_Z19example_ckks_basicsv,@function
_Z19example_ckks_basicsv:               # @_Z19example_ckks_basicsv
.Lfunc_begin3:
	.cfi_startproc
	.cfi_personality 155, DW.ref.__gxx_personality_v0
	.cfi_lsda 27, .Lexception3
# %bb.0:
	pushq	%rbp
	.cfi_def_cfa_offset 16
	.cfi_offset %rbp, -16
	movq	%rsp, %rbp
	.cfi_def_cfa_register %rbp
	subq	$6128, %rsp                     # imm = 0x17F0
	leaq	-40(%rbp), %rdi
	movq	%rdi, -5408(%rbp)               # 8-byte Spill
	callq	_ZNSaIcEC1Ev@PLT
	movq	-5408(%rbp), %rdx               # 8-byte Reload
.Ltmp23:
	leaq	.L.str.2(%rip), %rsi
	leaq	-32(%rbp), %rdi
	callq	_ZNSt7__cxx1112basic_stringIcSt11char_traitsIcESaIcEEC2IS3_EEPKcRKS3_
.Ltmp24:
	jmp	.LBB6_1
.LBB6_1:
.Ltmp26:
	leaq	-32(%rbp), %rdi
	callq	_Z20print_example_bannerNSt7__cxx1112basic_stringIcSt11char_traitsIcESaIcEEE
.Ltmp27:
	jmp	.LBB6_2
.LBB6_2:
	leaq	-32(%rbp), %rdi
	callq	_ZNSt7__cxx1112basic_stringIcSt11char_traitsIcESaIcEED1Ev@PLT
	leaq	-40(%rbp), %rdi
	callq	_ZNSaIcED1Ev@PLT
	leaq	-568(%rbp), %rdi
	leaq	.L.str.3(%rip), %rsi
	movl	$16, %edx
	callq	_ZNSt14basic_ofstreamIcSt11char_traitsIcEEC1EPKcSt13_Ios_Openmode@PLT
	xorl	%eax, %eax
	movl	%eax, %edi
	callq	time@PLT
	movl	%eax, %edi
	callq	srand@PLT
	xorps	%xmm0, %xmm0
	movsd	%xmm0, -576(%rbp)
	movl	$0, -580(%rbp)
.LBB6_3:                                # =>This Loop Header: Depth=1
                                        #     Child Loop BB6_5 Depth 2
                                        #       Child Loop BB6_16 Depth 3
                                        #       Child Loop BB6_52 Depth 3
                                        #       Child Loop BB6_148 Depth 3
                                        #       Child Loop BB6_264 Depth 3
                                        #       Child Loop BB6_292 Depth 3
	cmpl	$1, -580(%rbp)
	jge	.LBB6_339
# %bb.4:                                #   in Loop: Header=BB6_3 Depth=1
	xorps	%xmm0, %xmm0
	movsd	%xmm0, -592(%rbp)
	movl	$0, -596(%rbp)
.LBB6_5:                                #   Parent Loop BB6_3 Depth=1
                                        # =>  This Loop Header: Depth=2
                                        #       Child Loop BB6_16 Depth 3
                                        #       Child Loop BB6_52 Depth 3
                                        #       Child Loop BB6_148 Depth 3
                                        #       Child Loop BB6_264 Depth 3
                                        #       Child Loop BB6_292 Depth 3
	cmpl	$2, -596(%rbp)
	jge	.LBB6_337
# %bb.6:                                #   in Loop: Header=BB6_5 Depth=2
.Ltmp29:
	leaq	-752(%rbp), %rdi
	movl	$2, %esi
	callq	_ZN4seal20EncryptionParametersC2ENS_11scheme_typeE
.Ltmp30:
	jmp	.LBB6_7
.LBB6_7:                                #   in Loop: Header=BB6_5 Depth=2
	movslq	-596(%rbp), %rax
	movabsq	$773092966401, %rcx             # imm = 0xB3FFEE8001
	imulq	%rcx, %rax
	cvtsi2sd	%rax, %xmm0
	movsd	%xmm0, -760(%rbp)
	movq	$8192, -768(%rbp)               # imm = 0x2000
	movq	-768(%rbp), %rsi
.Ltmp32:
	leaq	-752(%rbp), %rdi
	callq	_ZN4seal20EncryptionParameters23set_poly_modulus_degreeEm
.Ltmp33:
	jmp	.LBB6_8
.LBB6_8:                                #   in Loop: Header=BB6_5 Depth=2
	movq	-768(%rbp), %rax
	movq	%rax, -5424(%rbp)               # 8-byte Spill
	movl	$60, -848(%rbp)
	movl	$40, -844(%rbp)
	movl	$40, -840(%rbp)
	movl	$60, -836(%rbp)
	leaq	-848(%rbp), %rax
	movq	%rax, -832(%rbp)
	movq	$4, -824(%rbp)
	leaq	-856(%rbp), %rdi
	movq	%rdi, -5416(%rbp)               # 8-byte Spill
	callq	_ZNSaIiEC2Ev
	movq	-5416(%rbp), %rcx               # 8-byte Reload
	movq	-832(%rbp), %rsi
	movq	-824(%rbp), %rdx
.Ltmp34:
	leaq	-816(%rbp), %rdi
	callq	_ZNSt6vectorIiSaIiEEC2ESt16initializer_listIiERKS0_
.Ltmp35:
	jmp	.LBB6_9
.LBB6_9:                                #   in Loop: Header=BB6_5 Depth=2
.Ltmp37:
	movq	-5424(%rbp), %rsi               # 8-byte Reload
	leaq	-792(%rbp), %rdi
	leaq	-816(%rbp), %rdx
	callq	_ZN4seal12CoeffModulus6CreateEmSt6vectorIiSaIiEE@PLT
.Ltmp38:
	jmp	.LBB6_10
.LBB6_10:                               #   in Loop: Header=BB6_5 Depth=2
.Ltmp40:
	leaq	-752(%rbp), %rdi
	leaq	-792(%rbp), %rsi
	callq	_ZN4seal20EncryptionParameters17set_coeff_modulusERKSt6vectorINS_7ModulusESaIS2_EE
.Ltmp41:
	jmp	.LBB6_11
.LBB6_11:                               #   in Loop: Header=BB6_5 Depth=2
	leaq	-792(%rbp), %rdi
	callq	_ZNSt6vectorIN4seal7ModulusESaIS1_EED2Ev
	leaq	-816(%rbp), %rdi
	callq	_ZNSt6vectorIiSaIiEED2Ev
	leaq	-856(%rbp), %rdi
	callq	_ZNSaIiED2Ev
.Ltmp43:
	movsd	.LCPI6_0(%rip), %xmm0           # xmm0 = mem[0],zero
	movl	$40, %edi
	callq	_ZSt3powIdiEN9__gnu_cxx11__promote_2IT_T0_NS0_9__promoteIS2_Xsr3std12__is_integerIS2_EE7__valueEE6__typeENS4_IS3_Xsr3std12__is_integerIS3_EE7__valueEE6__typeEE6__typeES2_S3_
.Ltmp44:
	movsd	%xmm0, -5432(%rbp)              # 8-byte Spill
	jmp	.LBB6_12
.LBB6_12:                               #   in Loop: Header=BB6_5 Depth=2
	movsd	-5432(%rbp), %xmm0              # 8-byte Reload
                                        # xmm0 = mem[0],zero
	movsd	%xmm0, -864(%rbp)
.Ltmp45:
	leaq	-1040(%rbp), %rdi
	leaq	-752(%rbp), %rsi
	movl	$1, %edx
	movl	$128, %ecx
	callq	_ZN4seal11SEALContextC2ERKNS_20EncryptionParametersEbNS_14sec_level_typeE
.Ltmp46:
	jmp	.LBB6_13
.LBB6_13:                               #   in Loop: Header=BB6_5 Depth=2
.Ltmp48:
	movq	_ZSt4cout@GOTPCREL(%rip), %rdi
	leaq	.L.str.4(%rip), %rsi
	callq	_ZStlsISt11char_traitsIcEERSt13basic_ostreamIcT_ES5_PKc@PLT
.Ltmp49:
	movq	%rax, -5440(%rbp)               # 8-byte Spill
	jmp	.LBB6_14
.LBB6_14:                               #   in Loop: Header=BB6_5 Depth=2
.Ltmp50:
	movq	-5440(%rbp), %rdi               # 8-byte Reload
	movq	_ZSt4endlIcSt11char_traitsIcEERSt13basic_ostreamIT_T0_ES6_@GOTPCREL(%rip), %rsi
	callq	_ZNSolsEPFRSoS_E@PLT
.Ltmp51:
	jmp	.LBB6_15
.LBB6_15:                               #   in Loop: Header=BB6_5 Depth=2
	leaq	-752(%rbp), %rdi
	callq	_ZNK4seal20EncryptionParameters13coeff_modulusEv
	movq	%rax, -1048(%rbp)
	movq	-1048(%rbp), %rdi
	callq	_ZNKSt6vectorIN4seal7ModulusESaIS1_EE5beginEv
	movq	%rax, -1056(%rbp)
	movq	-1048(%rbp), %rdi
	callq	_ZNKSt6vectorIN4seal7ModulusESaIS1_EE3endEv
	movq	%rax, -1064(%rbp)
.LBB6_16:                               #   Parent Loop BB6_3 Depth=1
                                        #     Parent Loop BB6_5 Depth=2
                                        # =>    This Inner Loop Header: Depth=3
	leaq	-1056(%rbp), %rdi
	leaq	-1064(%rbp), %rsi
	callq	_ZN9__gnu_cxxneIPKN4seal7ModulusESt6vectorIS2_SaIS2_EEEEbRKNS_17__normal_iteratorIT_T0_EESD_
	testb	$1, %al
	jne	.LBB6_17
	jmp	.LBB6_32
.LBB6_17:                               #   in Loop: Header=BB6_16 Depth=3
	leaq	-1056(%rbp), %rdi
	callq	_ZNK9__gnu_cxx17__normal_iteratorIPKN4seal7ModulusESt6vectorIS2_SaIS2_EEEdeEv
	movq	%rax, -1072(%rbp)
	movq	-1072(%rbp), %rdi
	callq	_ZNK4seal7Modulus5valueEv
	movq	%rax, %rsi
.Ltmp520:
	movq	_ZSt4cout@GOTPCREL(%rip), %rdi
	callq	_ZNSolsEm@PLT
.Ltmp521:
	movq	%rax, -5448(%rbp)               # 8-byte Spill
	jmp	.LBB6_18
.LBB6_18:                               #   in Loop: Header=BB6_16 Depth=3
.Ltmp522:
	movq	-5448(%rbp), %rdi               # 8-byte Reload
	movq	_ZSt4endlIcSt11char_traitsIcEERSt13basic_ostreamIT_T0_ES6_@GOTPCREL(%rip), %rsi
	callq	_ZNSolsEPFRSoS_E@PLT
.Ltmp523:
	jmp	.LBB6_19
.LBB6_19:                               #   in Loop: Header=BB6_16 Depth=3
	jmp	.LBB6_20
.LBB6_20:                               #   in Loop: Header=BB6_16 Depth=3
	leaq	-1056(%rbp), %rdi
	callq	_ZN9__gnu_cxx17__normal_iteratorIPKN4seal7ModulusESt6vectorIS2_SaIS2_EEEppEv
	jmp	.LBB6_16
.LBB6_21:
.Ltmp25:
	movq	%rax, %rcx
	movl	%edx, %eax
	movq	%rcx, -48(%rbp)
	movl	%eax, -52(%rbp)
	jmp	.LBB6_23
.LBB6_22:
.Ltmp28:
	movq	%rax, %rcx
	movl	%edx, %eax
	movq	%rcx, -48(%rbp)
	movl	%eax, -52(%rbp)
	leaq	-32(%rbp), %rdi
	callq	_ZNSt7__cxx1112basic_stringIcSt11char_traitsIcESaIcEED1Ev@PLT
.LBB6_23:
	leaq	-40(%rbp), %rdi
	callq	_ZNSaIcED1Ev@PLT
	jmp	.LBB6_341
.LBB6_24:
.Ltmp31:
	movq	%rax, %rcx
	movl	%edx, %eax
	movq	%rcx, -48(%rbp)
	movl	%eax, -52(%rbp)
	jmp	.LBB6_340
.LBB6_25:
.Ltmp47:
	movq	%rax, %rcx
	movl	%edx, %eax
	movq	%rcx, -48(%rbp)
	movl	%eax, -52(%rbp)
	jmp	.LBB6_336
.LBB6_26:
.Ltmp36:
	movq	%rax, %rcx
	movl	%edx, %eax
	movq	%rcx, -48(%rbp)
	movl	%eax, -52(%rbp)
	jmp	.LBB6_30
.LBB6_27:
.Ltmp39:
	movq	%rax, %rcx
	movl	%edx, %eax
	movq	%rcx, -48(%rbp)
	movl	%eax, -52(%rbp)
	jmp	.LBB6_29
.LBB6_28:
.Ltmp42:
	movq	%rax, %rcx
	movl	%edx, %eax
	movq	%rcx, -48(%rbp)
	movl	%eax, -52(%rbp)
	leaq	-792(%rbp), %rdi
	callq	_ZNSt6vectorIN4seal7ModulusESaIS1_EED2Ev
.LBB6_29:
	leaq	-816(%rbp), %rdi
	callq	_ZNSt6vectorIiSaIiEED2Ev
.LBB6_30:
	leaq	-856(%rbp), %rdi
	callq	_ZNSaIiED2Ev
	jmp	.LBB6_336
.LBB6_31:
.Ltmp524:
	movq	%rax, %rcx
	movl	%edx, %eax
	movq	%rcx, -48(%rbp)
	movl	%eax, -52(%rbp)
	jmp	.LBB6_335
.LBB6_32:                               #   in Loop: Header=BB6_5 Depth=2
.Ltmp52:
	leaq	-1040(%rbp), %rdi
	callq	_Z16print_parametersRKN4seal11SEALContextE
.Ltmp53:
	jmp	.LBB6_33
.LBB6_33:                               #   in Loop: Header=BB6_5 Depth=2
.Ltmp54:
	movq	_ZSt4cout@GOTPCREL(%rip), %rdi
	movq	_ZSt4endlIcSt11char_traitsIcEERSt13basic_ostreamIT_T0_ES6_@GOTPCREL(%rip), %rsi
	callq	_ZNSolsEPFRSoS_E@PLT
.Ltmp55:
	jmp	.LBB6_34
.LBB6_34:                               #   in Loop: Header=BB6_5 Depth=2
.Ltmp56:
	leaq	-1480(%rbp), %rdi
	leaq	-1040(%rbp), %rsi
	callq	_ZN4seal12KeyGeneratorC1ERKNS_11SEALContextE@PLT
.Ltmp57:
	jmp	.LBB6_35
.LBB6_35:                               #   in Loop: Header=BB6_5 Depth=2
.Ltmp58:
	leaq	-1480(%rbp), %rdi
	callq	_ZNK4seal12KeyGenerator10secret_keyEv@PLT
.Ltmp59:
	movq	%rax, -5456(%rbp)               # 8-byte Spill
	jmp	.LBB6_36
.LBB6_36:                               #   in Loop: Header=BB6_5 Depth=2
.Ltmp60:
	movq	-5456(%rbp), %rsi               # 8-byte Reload
	leaq	-1592(%rbp), %rdi
	callq	_ZN4seal9SecretKeyC2ERKS0_
.Ltmp61:
	jmp	.LBB6_37
.LBB6_37:                               #   in Loop: Header=BB6_5 Depth=2
.Ltmp63:
	leaq	-1728(%rbp), %rdi
	callq	_ZN4seal9PublicKeyC2Ev
.Ltmp64:
	jmp	.LBB6_38
.LBB6_38:                               #   in Loop: Header=BB6_5 Depth=2
.Ltmp66:
	leaq	-1480(%rbp), %rdi
	leaq	-1728(%rbp), %rsi
	callq	_ZNK4seal12KeyGenerator17create_public_keyERNS_9PublicKeyE
.Ltmp67:
	jmp	.LBB6_39
.LBB6_39:                               #   in Loop: Header=BB6_5 Depth=2
.Ltmp68:
	leaq	-1800(%rbp), %rdi
	callq	_ZN4seal9RelinKeysC2Ev
.Ltmp69:
	jmp	.LBB6_40
.LBB6_40:                               #   in Loop: Header=BB6_5 Depth=2
.Ltmp71:
	leaq	-1480(%rbp), %rdi
	leaq	-1800(%rbp), %rsi
	callq	_ZN4seal12KeyGenerator17create_relin_keysERNS_9RelinKeysE
.Ltmp72:
	jmp	.LBB6_41
.LBB6_41:                               #   in Loop: Header=BB6_5 Depth=2
.Ltmp73:
	leaq	-1872(%rbp), %rdi
	callq	_ZN4seal10GaloisKeysC2Ev
.Ltmp74:
	jmp	.LBB6_42
.LBB6_42:                               #   in Loop: Header=BB6_5 Depth=2
.Ltmp76:
	leaq	-1480(%rbp), %rdi
	leaq	-1872(%rbp), %rsi
	callq	_ZN4seal12KeyGenerator18create_galois_keysERNS_10GaloisKeysE
.Ltmp77:
	jmp	.LBB6_43
.LBB6_43:                               #   in Loop: Header=BB6_5 Depth=2
.Ltmp78:
	leaq	-2296(%rbp), %rdi
	leaq	-1040(%rbp), %rsi
	leaq	-1728(%rbp), %rdx
	callq	_ZN4seal9EncryptorC1ERKNS_11SEALContextERKNS_9PublicKeyE@PLT
.Ltmp79:
	jmp	.LBB6_44
.LBB6_44:                               #   in Loop: Header=BB6_5 Depth=2
.Ltmp81:
	leaq	-2520(%rbp), %rdi
	leaq	-1040(%rbp), %rsi
	callq	_ZN4seal9EvaluatorC1ERKNS_11SEALContextE@PLT
.Ltmp82:
	jmp	.LBB6_45
.LBB6_45:                               #   in Loop: Header=BB6_5 Depth=2
.Ltmp84:
	leaq	-2808(%rbp), %rdi
	leaq	-1040(%rbp), %rsi
	leaq	-1592(%rbp), %rdx
	callq	_ZN4seal9DecryptorC1ERKNS_11SEALContextERKNS_9SecretKeyE@PLT
.Ltmp85:
	jmp	.LBB6_46
.LBB6_46:                               #   in Loop: Header=BB6_5 Depth=2
.Ltmp87:
	leaq	-3128(%rbp), %rdi
	leaq	-1040(%rbp), %rsi
	callq	_ZN4seal11CKKSEncoderC1ERKNS_11SEALContextE@PLT
.Ltmp88:
	jmp	.LBB6_47
.LBB6_47:                               #   in Loop: Header=BB6_5 Depth=2
	leaq	-3128(%rbp), %rdi
	callq	_ZNK4seal11CKKSEncoder10slot_countEv
	movq	%rax, -3136(%rbp)
.Ltmp90:
	movq	_ZSt4cout@GOTPCREL(%rip), %rdi
	leaq	.L.str.5(%rip), %rsi
	callq	_ZStlsISt11char_traitsIcEERSt13basic_ostreamIcT_ES5_PKc@PLT
.Ltmp91:
	movq	%rax, -5464(%rbp)               # 8-byte Spill
	jmp	.LBB6_48
.LBB6_48:                               #   in Loop: Header=BB6_5 Depth=2
	movq	-5464(%rbp), %rdi               # 8-byte Reload
	movq	-3136(%rbp), %rsi
.Ltmp92:
	callq	_ZNSolsEm@PLT
.Ltmp93:
	movq	%rax, -5472(%rbp)               # 8-byte Spill
	jmp	.LBB6_49
.LBB6_49:                               #   in Loop: Header=BB6_5 Depth=2
.Ltmp94:
	movq	-5472(%rbp), %rdi               # 8-byte Reload
	movq	_ZSt4endlIcSt11char_traitsIcEERSt13basic_ostreamIT_T0_ES6_@GOTPCREL(%rip), %rsi
	callq	_ZNSolsEPFRSoS_E@PLT
.Ltmp95:
	jmp	.LBB6_50
.LBB6_50:                               #   in Loop: Header=BB6_5 Depth=2
	leaq	-3160(%rbp), %rdi
	movq	%rdi, -5480(%rbp)               # 8-byte Spill
	callq	_ZNSt6vectorIdSaIdEEC2Ev
	movq	-5480(%rbp), %rdi               # 8-byte Reload
	movq	-3136(%rbp), %rsi
.Ltmp97:
	callq	_ZNSt6vectorIdSaIdEE7reserveEm
.Ltmp98:
	jmp	.LBB6_51
.LBB6_51:                               #   in Loop: Header=BB6_5 Depth=2
	movsd	-592(%rbp), %xmm0               # xmm0 = mem[0],zero
	movsd	%xmm0, -3168(%rbp)
	movaps	.LCPI6_2(%rip), %xmm0           # xmm0 = [1127219200,1160773632,0,0]
	movq	-3136(%rbp), %xmm1              # xmm1 = mem[0],zero
	punpckldq	%xmm0, %xmm1            # xmm1 = xmm1[0],xmm0[0],xmm1[1],xmm0[1]
	movapd	.LCPI6_3(%rip), %xmm0           # xmm0 = [4.503599627370496E+15,1.9342813113834067E+25]
	subpd	%xmm0, %xmm1
	movaps	%xmm1, %xmm0
	unpckhpd	%xmm1, %xmm1                    # xmm1 = xmm1[1,1]
	addsd	%xmm0, %xmm1
	movsd	.LCPI6_1(%rip), %xmm0           # xmm0 = mem[0],zero
	subsd	%xmm0, %xmm1
	movsd	.LCPI6_1(%rip), %xmm0           # xmm0 = mem[0],zero
	divsd	%xmm1, %xmm0
	movsd	%xmm0, -3176(%rbp)
	movq	$0, -3184(%rbp)
.LBB6_52:                               #   Parent Loop BB6_3 Depth=1
                                        #     Parent Loop BB6_5 Depth=2
                                        # =>    This Inner Loop Header: Depth=3
	movq	-3184(%rbp), %rax
	cmpq	-3136(%rbp), %rax
	jae	.LBB6_66
# %bb.53:                               #   in Loop: Header=BB6_52 Depth=3
.Ltmp517:
	leaq	-3160(%rbp), %rdi
	leaq	-3168(%rbp), %rsi
	callq	_ZNSt6vectorIdSaIdEE9push_backERKd
.Ltmp518:
	jmp	.LBB6_54
.LBB6_54:                               #   in Loop: Header=BB6_52 Depth=3
	movsd	-3176(%rbp), %xmm0              # xmm0 = mem[0],zero
	addsd	-3168(%rbp), %xmm0
	movsd	%xmm0, -3168(%rbp)
# %bb.55:                               #   in Loop: Header=BB6_52 Depth=3
	movq	-3184(%rbp), %rax
	addq	$1, %rax
	movq	%rax, -3184(%rbp)
	jmp	.LBB6_52
.LBB6_56:
.Ltmp62:
	movq	%rax, %rcx
	movl	%edx, %eax
	movq	%rcx, -48(%rbp)
	movl	%eax, -52(%rbp)
	jmp	.LBB6_334
.LBB6_57:
.Ltmp65:
	movq	%rax, %rcx
	movl	%edx, %eax
	movq	%rcx, -48(%rbp)
	movl	%eax, -52(%rbp)
	jmp	.LBB6_333
.LBB6_58:
.Ltmp70:
	movq	%rax, %rcx
	movl	%edx, %eax
	movq	%rcx, -48(%rbp)
	movl	%eax, -52(%rbp)
	jmp	.LBB6_332
.LBB6_59:
.Ltmp75:
	movq	%rax, %rcx
	movl	%edx, %eax
	movq	%rcx, -48(%rbp)
	movl	%eax, -52(%rbp)
	jmp	.LBB6_331
.LBB6_60:
.Ltmp80:
	movq	%rax, %rcx
	movl	%edx, %eax
	movq	%rcx, -48(%rbp)
	movl	%eax, -52(%rbp)
	jmp	.LBB6_330
.LBB6_61:
.Ltmp83:
	movq	%rax, %rcx
	movl	%edx, %eax
	movq	%rcx, -48(%rbp)
	movl	%eax, -52(%rbp)
	jmp	.LBB6_329
.LBB6_62:
.Ltmp86:
	movq	%rax, %rcx
	movl	%edx, %eax
	movq	%rcx, -48(%rbp)
	movl	%eax, -52(%rbp)
	jmp	.LBB6_328
.LBB6_63:
.Ltmp89:
	movq	%rax, %rcx
	movl	%edx, %eax
	movq	%rcx, -48(%rbp)
	movl	%eax, -52(%rbp)
	jmp	.LBB6_327
.LBB6_64:
.Ltmp96:
	movq	%rax, %rcx
	movl	%edx, %eax
	movq	%rcx, -48(%rbp)
	movl	%eax, -52(%rbp)
	jmp	.LBB6_326
.LBB6_65:
.Ltmp519:
	movq	%rax, %rcx
	movl	%edx, %eax
	movq	%rcx, -48(%rbp)
	movl	%eax, -52(%rbp)
	jmp	.LBB6_325
.LBB6_66:                               #   in Loop: Header=BB6_5 Depth=2
.Ltmp99:
	movq	_ZSt4cout@GOTPCREL(%rip), %rdi
	leaq	.L.str.6(%rip), %rsi
	callq	_ZStlsISt11char_traitsIcEERSt13basic_ostreamIcT_ES5_PKc@PLT
.Ltmp100:
	movq	%rax, -5488(%rbp)               # 8-byte Spill
	jmp	.LBB6_67
.LBB6_67:                               #   in Loop: Header=BB6_5 Depth=2
.Ltmp101:
	movq	-5488(%rbp), %rdi               # 8-byte Reload
	movq	_ZSt4endlIcSt11char_traitsIcEERSt13basic_ostreamIT_T0_ES6_@GOTPCREL(%rip), %rsi
	callq	_ZNSolsEPFRSoS_E@PLT
.Ltmp102:
	jmp	.LBB6_68
.LBB6_68:                               #   in Loop: Header=BB6_5 Depth=2
.Ltmp103:
	leaq	-3208(%rbp), %rdi
	leaq	-3160(%rbp), %rsi
	callq	_ZNSt6vectorIdSaIdEEC2ERKS1_
.Ltmp104:
	jmp	.LBB6_69
.LBB6_69:                               #   in Loop: Header=BB6_5 Depth=2
.Ltmp105:
	leaq	-3208(%rbp), %rdi
	movl	$3, %esi
	movl	$7, %edx
	callq	_Z12print_vectorIdEvSt6vectorIT_SaIS1_EEmi
.Ltmp106:
	jmp	.LBB6_70
.LBB6_70:                               #   in Loop: Header=BB6_5 Depth=2
	leaq	-3208(%rbp), %rdi
	callq	_ZNSt6vectorIdSaIdEED2Ev
.Ltmp108:
	movq	_ZSt4cout@GOTPCREL(%rip), %rdi
	leaq	.L.str.7(%rip), %rsi
	callq	_ZStlsISt11char_traitsIcEERSt13basic_ostreamIcT_ES5_PKc@PLT
.Ltmp109:
	movq	%rax, -5496(%rbp)               # 8-byte Spill
	jmp	.LBB6_71
.LBB6_71:                               #   in Loop: Header=BB6_5 Depth=2
.Ltmp110:
	movq	-5496(%rbp), %rdi               # 8-byte Reload
	movq	_ZSt4endlIcSt11char_traitsIcEERSt13basic_ostreamIT_T0_ES6_@GOTPCREL(%rip), %rsi
	callq	_ZNSolsEPFRSoS_E@PLT
.Ltmp111:
	jmp	.LBB6_72
.LBB6_72:                               #   in Loop: Header=BB6_5 Depth=2
.Ltmp112:
	leaq	-3336(%rbp), %rdi
	callq	_ZN4seal13MemoryManager7GetPoolEv
.Ltmp113:
	jmp	.LBB6_73
.LBB6_73:                               #   in Loop: Header=BB6_5 Depth=2
.Ltmp114:
	leaq	-3320(%rbp), %rdi
	leaq	-3336(%rbp), %rsi
	callq	_ZN4seal9PlaintextC2ENS_16MemoryPoolHandleE
.Ltmp115:
	jmp	.LBB6_74
.LBB6_74:                               #   in Loop: Header=BB6_5 Depth=2
	leaq	-3336(%rbp), %rdi
	callq	_ZN4seal16MemoryPoolHandleD2Ev
.Ltmp117:
	leaq	-3464(%rbp), %rdi
	callq	_ZN4seal13MemoryManager7GetPoolEv
.Ltmp118:
	jmp	.LBB6_75
.LBB6_75:                               #   in Loop: Header=BB6_5 Depth=2
.Ltmp120:
	leaq	-3448(%rbp), %rdi
	leaq	-3464(%rbp), %rsi
	callq	_ZN4seal9PlaintextC2ENS_16MemoryPoolHandleE
.Ltmp121:
	jmp	.LBB6_76
.LBB6_76:                               #   in Loop: Header=BB6_5 Depth=2
	leaq	-3464(%rbp), %rdi
	callq	_ZN4seal16MemoryPoolHandleD2Ev
.Ltmp123:
	leaq	-3592(%rbp), %rdi
	callq	_ZN4seal13MemoryManager7GetPoolEv
.Ltmp124:
	jmp	.LBB6_77
.LBB6_77:                               #   in Loop: Header=BB6_5 Depth=2
.Ltmp126:
	leaq	-3576(%rbp), %rdi
	leaq	-3592(%rbp), %rsi
	callq	_ZN4seal9PlaintextC2ENS_16MemoryPoolHandleE
.Ltmp127:
	jmp	.LBB6_78
.LBB6_78:                               #   in Loop: Header=BB6_5 Depth=2
	leaq	-3592(%rbp), %rdi
	callq	_ZN4seal16MemoryPoolHandleD2Ev
	movsd	-864(%rbp), %xmm0               # xmm0 = mem[0],zero
	movsd	%xmm0, -5504(%rbp)              # 8-byte Spill
.Ltmp129:
	leaq	-3608(%rbp), %rdi
	callq	_ZN4seal13MemoryManager7GetPoolEv
.Ltmp130:
	jmp	.LBB6_79
.LBB6_79:                               #   in Loop: Header=BB6_5 Depth=2
.Ltmp131:
	movsd	-5504(%rbp), %xmm1              # 8-byte Reload
                                        # xmm1 = mem[0],zero
	leaq	-3128(%rbp), %rdi
	movsd	.LCPI6_4(%rip), %xmm0           # xmm0 = mem[0],zero
	leaq	-3320(%rbp), %rsi
	leaq	-3608(%rbp), %rdx
	callq	_ZN4seal11CKKSEncoder6encodeEddRNS_9PlaintextENS_16MemoryPoolHandleE
.Ltmp132:
	jmp	.LBB6_80
.LBB6_80:                               #   in Loop: Header=BB6_5 Depth=2
	leaq	-3608(%rbp), %rdi
	callq	_ZN4seal16MemoryPoolHandleD2Ev
	movsd	-864(%rbp), %xmm0               # xmm0 = mem[0],zero
	movsd	%xmm0, -5512(%rbp)              # 8-byte Spill
.Ltmp134:
	leaq	-3624(%rbp), %rdi
	callq	_ZN4seal13MemoryManager7GetPoolEv
.Ltmp135:
	jmp	.LBB6_81
.LBB6_81:                               #   in Loop: Header=BB6_5 Depth=2
.Ltmp136:
	movsd	-5512(%rbp), %xmm1              # 8-byte Reload
                                        # xmm1 = mem[0],zero
	leaq	-3128(%rbp), %rdi
	movsd	.LCPI6_5(%rip), %xmm0           # xmm0 = mem[0],zero
	leaq	-3448(%rbp), %rsi
	leaq	-3624(%rbp), %rdx
	callq	_ZN4seal11CKKSEncoder6encodeEddRNS_9PlaintextENS_16MemoryPoolHandleE
.Ltmp137:
	jmp	.LBB6_82
.LBB6_82:                               #   in Loop: Header=BB6_5 Depth=2
	leaq	-3624(%rbp), %rdi
	callq	_ZN4seal16MemoryPoolHandleD2Ev
	movsd	-864(%rbp), %xmm0               # xmm0 = mem[0],zero
	movsd	%xmm0, -5520(%rbp)              # 8-byte Spill
.Ltmp139:
	leaq	-3640(%rbp), %rdi
	callq	_ZN4seal13MemoryManager7GetPoolEv
.Ltmp140:
	jmp	.LBB6_83
.LBB6_83:                               #   in Loop: Header=BB6_5 Depth=2
.Ltmp141:
	movsd	-5520(%rbp), %xmm1              # 8-byte Reload
                                        # xmm1 = mem[0],zero
	leaq	-3128(%rbp), %rdi
	movsd	.LCPI6_1(%rip), %xmm0           # xmm0 = mem[0],zero
	leaq	-3576(%rbp), %rsi
	leaq	-3640(%rbp), %rdx
	callq	_ZN4seal11CKKSEncoder6encodeEddRNS_9PlaintextENS_16MemoryPoolHandleE
.Ltmp142:
	jmp	.LBB6_84
.LBB6_84:                               #   in Loop: Header=BB6_5 Depth=2
	leaq	-3640(%rbp), %rdi
	callq	_ZN4seal16MemoryPoolHandleD2Ev
.Ltmp144:
	leaq	-3768(%rbp), %rdi
	callq	_ZN4seal13MemoryManager7GetPoolEv
.Ltmp145:
	jmp	.LBB6_85
.LBB6_85:                               #   in Loop: Header=BB6_5 Depth=2
.Ltmp147:
	leaq	-3752(%rbp), %rdi
	leaq	-3768(%rbp), %rsi
	callq	_ZN4seal9PlaintextC2ENS_16MemoryPoolHandleE
.Ltmp148:
	jmp	.LBB6_86
.LBB6_86:                               #   in Loop: Header=BB6_5 Depth=2
	leaq	-3768(%rbp), %rdi
	callq	_ZN4seal16MemoryPoolHandleD2Ev
.Ltmp150:
	movl	$203, %edi
	callq	_Z10print_linei
.Ltmp151:
	jmp	.LBB6_87
.LBB6_87:                               #   in Loop: Header=BB6_5 Depth=2
.Ltmp152:
	movq	_ZSt4cout@GOTPCREL(%rip), %rdi
	leaq	.L.str.8(%rip), %rsi
	callq	_ZStlsISt11char_traitsIcEERSt13basic_ostreamIcT_ES5_PKc@PLT
.Ltmp153:
	movq	%rax, -5528(%rbp)               # 8-byte Spill
	jmp	.LBB6_88
.LBB6_88:                               #   in Loop: Header=BB6_5 Depth=2
.Ltmp154:
	movq	-5528(%rbp), %rdi               # 8-byte Reload
	movq	_ZSt4endlIcSt11char_traitsIcEERSt13basic_ostreamIT_T0_ES6_@GOTPCREL(%rip), %rsi
	callq	_ZNSolsEPFRSoS_E@PLT
.Ltmp155:
	jmp	.LBB6_89
.LBB6_89:                               #   in Loop: Header=BB6_5 Depth=2
	movsd	-864(%rbp), %xmm0               # xmm0 = mem[0],zero
	movsd	%xmm0, -5536(%rbp)              # 8-byte Spill
.Ltmp156:
	leaq	-3784(%rbp), %rdi
	callq	_ZN4seal13MemoryManager7GetPoolEv
.Ltmp157:
	jmp	.LBB6_90
.LBB6_90:                               #   in Loop: Header=BB6_5 Depth=2
.Ltmp158:
	movsd	-5536(%rbp), %xmm0              # 8-byte Reload
                                        # xmm0 = mem[0],zero
	leaq	-3128(%rbp), %rdi
	leaq	-3160(%rbp), %rsi
	leaq	-3752(%rbp), %rdx
	leaq	-3784(%rbp), %rcx
	callq	_ZN4seal11CKKSEncoder6encodeIdvEEvRKSt6vectorIT_SaIS3_EEdRNS_9PlaintextENS_16MemoryPoolHandleE
.Ltmp159:
	jmp	.LBB6_91
.LBB6_91:                               #   in Loop: Header=BB6_5 Depth=2
	leaq	-3784(%rbp), %rdi
	callq	_ZN4seal16MemoryPoolHandleD2Ev
.Ltmp161:
	leaq	-3936(%rbp), %rdi
	callq	_ZN4seal13MemoryManager7GetPoolEv
.Ltmp162:
	jmp	.LBB6_92
.LBB6_92:                               #   in Loop: Header=BB6_5 Depth=2
.Ltmp164:
	leaq	-3920(%rbp), %rdi
	leaq	-3936(%rbp), %rsi
	callq	_ZN4seal10CiphertextC2ENS_16MemoryPoolHandleE
.Ltmp165:
	jmp	.LBB6_93
.LBB6_93:                               #   in Loop: Header=BB6_5 Depth=2
	leaq	-3936(%rbp), %rdi
	callq	_ZN4seal16MemoryPoolHandleD2Ev
.Ltmp167:
	leaq	-3952(%rbp), %rdi
	callq	_ZN4seal13MemoryManager7GetPoolEv
.Ltmp168:
	jmp	.LBB6_94
.LBB6_94:                               #   in Loop: Header=BB6_5 Depth=2
.Ltmp169:
	leaq	-2296(%rbp), %rdi
	leaq	-3752(%rbp), %rsi
	leaq	-3920(%rbp), %rdx
	leaq	-3952(%rbp), %rcx
	callq	_ZNK4seal9Encryptor7encryptERKNS_9PlaintextERNS_10CiphertextENS_16MemoryPoolHandleE
.Ltmp170:
	jmp	.LBB6_95
.LBB6_95:                               #   in Loop: Header=BB6_5 Depth=2
	leaq	-3952(%rbp), %rdi
	callq	_ZN4seal16MemoryPoolHandleD2Ev
.Ltmp172:
	leaq	-4112(%rbp), %rdi
	callq	_ZN4seal13MemoryManager7GetPoolEv
.Ltmp173:
	jmp	.LBB6_96
.LBB6_96:                               #   in Loop: Header=BB6_5 Depth=2
.Ltmp175:
	leaq	-4096(%rbp), %rdi
	leaq	-4112(%rbp), %rsi
	callq	_ZN4seal10CiphertextC2ENS_16MemoryPoolHandleE
.Ltmp176:
	jmp	.LBB6_97
.LBB6_97:                               #   in Loop: Header=BB6_5 Depth=2
	leaq	-4112(%rbp), %rdi
	callq	_ZN4seal16MemoryPoolHandleD2Ev
.Ltmp178:
	movl	$229, %edi
	callq	_Z10print_linei
.Ltmp179:
	jmp	.LBB6_98
.LBB6_98:                               #   in Loop: Header=BB6_5 Depth=2
.Ltmp180:
	movq	_ZSt4cout@GOTPCREL(%rip), %rdi
	leaq	.L.str.9(%rip), %rsi
	callq	_ZStlsISt11char_traitsIcEERSt13basic_ostreamIcT_ES5_PKc@PLT
.Ltmp181:
	movq	%rax, -5544(%rbp)               # 8-byte Spill
	jmp	.LBB6_99
.LBB6_99:                               #   in Loop: Header=BB6_5 Depth=2
.Ltmp182:
	movq	-5544(%rbp), %rdi               # 8-byte Reload
	movq	_ZSt4endlIcSt11char_traitsIcEERSt13basic_ostreamIT_T0_ES6_@GOTPCREL(%rip), %rsi
	callq	_ZNSolsEPFRSoS_E@PLT
.Ltmp183:
	jmp	.LBB6_100
.LBB6_100:                              #   in Loop: Header=BB6_5 Depth=2
.Ltmp184:
	leaq	-4128(%rbp), %rdi
	callq	_ZN4seal13MemoryManager7GetPoolEv
.Ltmp185:
	jmp	.LBB6_101
.LBB6_101:                              #   in Loop: Header=BB6_5 Depth=2
.Ltmp186:
	leaq	-2520(%rbp), %rdi
	leaq	-3920(%rbp), %rsi
	leaq	-4096(%rbp), %rdx
	leaq	-4128(%rbp), %rcx
	callq	_ZN4seal9Evaluator6squareERKNS_10CiphertextERS1_NS_16MemoryPoolHandleE
.Ltmp187:
	jmp	.LBB6_102
.LBB6_102:                              #   in Loop: Header=BB6_5 Depth=2
	leaq	-4128(%rbp), %rdi
	callq	_ZN4seal16MemoryPoolHandleD2Ev
.Ltmp189:
	leaq	-4144(%rbp), %rdi
	callq	_ZN4seal13MemoryManager7GetPoolEv
.Ltmp190:
	jmp	.LBB6_103
.LBB6_103:                              #   in Loop: Header=BB6_5 Depth=2
.Ltmp191:
	leaq	-2520(%rbp), %rdi
	leaq	-4096(%rbp), %rsi
	leaq	-1800(%rbp), %rdx
	xorps	%xmm1, %xmm1
	xorl	%ecx, %ecx
	leaq	-4144(%rbp), %r8
	movaps	%xmm1, %xmm0
	callq	_ZN4seal9Evaluator19relinearize_inplaceERNS_10CiphertextERKNS_9RelinKeysEddiNS_16MemoryPoolHandleE
.Ltmp192:
	jmp	.LBB6_104
.LBB6_104:                              #   in Loop: Header=BB6_5 Depth=2
	leaq	-4144(%rbp), %rdi
	callq	_ZN4seal16MemoryPoolHandleD2Ev
.Ltmp194:
	movq	_ZSt4cout@GOTPCREL(%rip), %rdi
	leaq	.L.str.10(%rip), %rsi
	callq	_ZStlsISt11char_traitsIcEERSt13basic_ostreamIcT_ES5_PKc@PLT
.Ltmp195:
	movq	%rax, -5552(%rbp)               # 8-byte Spill
	jmp	.LBB6_105
.LBB6_105:                              #   in Loop: Header=BB6_5 Depth=2
	leaq	-4096(%rbp), %rdi
	callq	_ZN4seal10Ciphertext5scaleEv
	movsd	(%rax), %xmm0                   # xmm0 = mem[0],zero
	callq	log2@PLT
	movq	-5552(%rbp), %rdi               # 8-byte Reload
.Ltmp196:
	callq	_ZNSolsEd@PLT
.Ltmp197:
	movq	%rax, -5560(%rbp)               # 8-byte Spill
	jmp	.LBB6_106
.LBB6_106:                              #   in Loop: Header=BB6_5 Depth=2
.Ltmp198:
	movq	-5560(%rbp), %rdi               # 8-byte Reload
	leaq	.L.str.11(%rip), %rsi
	callq	_ZStlsISt11char_traitsIcEERSt13basic_ostreamIcT_ES5_PKc@PLT
.Ltmp199:
	movq	%rax, -5568(%rbp)               # 8-byte Spill
	jmp	.LBB6_107
.LBB6_107:                              #   in Loop: Header=BB6_5 Depth=2
.Ltmp200:
	movq	-5568(%rbp), %rdi               # 8-byte Reload
	movq	_ZSt4endlIcSt11char_traitsIcEERSt13basic_ostreamIT_T0_ES6_@GOTPCREL(%rip), %rsi
	callq	_ZNSolsEPFRSoS_E@PLT
.Ltmp201:
	jmp	.LBB6_108
.LBB6_108:                              #   in Loop: Header=BB6_5 Depth=2
.Ltmp202:
	movl	$249, %edi
	callq	_Z10print_linei
.Ltmp203:
	jmp	.LBB6_109
.LBB6_109:                              #   in Loop: Header=BB6_5 Depth=2
.Ltmp204:
	movq	_ZSt4cout@GOTPCREL(%rip), %rdi
	leaq	.L.str.12(%rip), %rsi
	callq	_ZStlsISt11char_traitsIcEERSt13basic_ostreamIcT_ES5_PKc@PLT
.Ltmp205:
	movq	%rax, -5576(%rbp)               # 8-byte Spill
	jmp	.LBB6_110
.LBB6_110:                              #   in Loop: Header=BB6_5 Depth=2
.Ltmp206:
	movq	-5576(%rbp), %rdi               # 8-byte Reload
	movq	_ZSt4endlIcSt11char_traitsIcEERSt13basic_ostreamIT_T0_ES6_@GOTPCREL(%rip), %rsi
	callq	_ZNSolsEPFRSoS_E@PLT
.Ltmp207:
	jmp	.LBB6_111
.LBB6_111:                              #   in Loop: Header=BB6_5 Depth=2
.Ltmp208:
	leaq	-4160(%rbp), %rdi
	callq	_ZN4seal13MemoryManager7GetPoolEv
.Ltmp209:
	jmp	.LBB6_112
.LBB6_112:                              #   in Loop: Header=BB6_5 Depth=2
.Ltmp210:
	leaq	-2520(%rbp), %rdi
	leaq	-4096(%rbp), %rsi
	xorps	%xmm1, %xmm1
	xorl	%edx, %edx
	leaq	-4160(%rbp), %rcx
	movaps	%xmm1, %xmm0
	callq	_ZN4seal9Evaluator23rescale_to_next_inplaceERNS_10CiphertextEddiNS_16MemoryPoolHandleE
.Ltmp211:
	jmp	.LBB6_113
.LBB6_113:                              #   in Loop: Header=BB6_5 Depth=2
	leaq	-4160(%rbp), %rdi
	callq	_ZN4seal16MemoryPoolHandleD2Ev
.Ltmp213:
	movq	_ZSt4cout@GOTPCREL(%rip), %rdi
	leaq	.L.str.13(%rip), %rsi
	callq	_ZStlsISt11char_traitsIcEERSt13basic_ostreamIcT_ES5_PKc@PLT
.Ltmp214:
	movq	%rax, -5584(%rbp)               # 8-byte Spill
	jmp	.LBB6_114
.LBB6_114:                              #   in Loop: Header=BB6_5 Depth=2
	leaq	-4096(%rbp), %rdi
	callq	_ZN4seal10Ciphertext5scaleEv
	movsd	(%rax), %xmm0                   # xmm0 = mem[0],zero
	callq	log2@PLT
	movq	-5584(%rbp), %rdi               # 8-byte Reload
.Ltmp215:
	callq	_ZNSolsEd@PLT
.Ltmp216:
	movq	%rax, -5592(%rbp)               # 8-byte Spill
	jmp	.LBB6_115
.LBB6_115:                              #   in Loop: Header=BB6_5 Depth=2
.Ltmp217:
	movq	-5592(%rbp), %rdi               # 8-byte Reload
	leaq	.L.str.11(%rip), %rsi
	callq	_ZStlsISt11char_traitsIcEERSt13basic_ostreamIcT_ES5_PKc@PLT
.Ltmp218:
	movq	%rax, -5600(%rbp)               # 8-byte Spill
	jmp	.LBB6_116
.LBB6_116:                              #   in Loop: Header=BB6_5 Depth=2
.Ltmp219:
	movq	-5600(%rbp), %rdi               # 8-byte Reload
	movq	_ZSt4endlIcSt11char_traitsIcEERSt13basic_ostreamIT_T0_ES6_@GOTPCREL(%rip), %rsi
	callq	_ZNSolsEPFRSoS_E@PLT
.Ltmp220:
	jmp	.LBB6_117
.LBB6_117:                              #   in Loop: Header=BB6_5 Depth=2
.Ltmp221:
	movl	$262, %edi                      # imm = 0x106
	callq	_Z10print_linei
.Ltmp222:
	jmp	.LBB6_118
.LBB6_118:                              #   in Loop: Header=BB6_5 Depth=2
.Ltmp223:
	movq	_ZSt4cout@GOTPCREL(%rip), %rdi
	leaq	.L.str.14(%rip), %rsi
	callq	_ZStlsISt11char_traitsIcEERSt13basic_ostreamIcT_ES5_PKc@PLT
.Ltmp224:
	movq	%rax, -5608(%rbp)               # 8-byte Spill
	jmp	.LBB6_119
.LBB6_119:                              #   in Loop: Header=BB6_5 Depth=2
.Ltmp225:
	movq	-5608(%rbp), %rdi               # 8-byte Reload
	movq	_ZSt4endlIcSt11char_traitsIcEERSt13basic_ostreamIT_T0_ES6_@GOTPCREL(%rip), %rsi
	callq	_ZNSolsEPFRSoS_E@PLT
.Ltmp226:
	jmp	.LBB6_120
.LBB6_120:                              #   in Loop: Header=BB6_5 Depth=2
.Ltmp227:
	leaq	-4312(%rbp), %rdi
	callq	_ZN4seal13MemoryManager7GetPoolEv
.Ltmp228:
	jmp	.LBB6_121
.LBB6_121:                              #   in Loop: Header=BB6_5 Depth=2
.Ltmp230:
	leaq	-4296(%rbp), %rdi
	leaq	-4312(%rbp), %rsi
	callq	_ZN4seal10CiphertextC2ENS_16MemoryPoolHandleE
.Ltmp231:
	jmp	.LBB6_122
.LBB6_122:                              #   in Loop: Header=BB6_5 Depth=2
	leaq	-4312(%rbp), %rdi
	callq	_ZN4seal16MemoryPoolHandleD2Ev
.Ltmp233:
	leaq	-4328(%rbp), %rdi
	callq	_ZN4seal13MemoryManager7GetPoolEv
.Ltmp234:
	jmp	.LBB6_123
.LBB6_123:                              #   in Loop: Header=BB6_5 Depth=2
.Ltmp235:
	leaq	-2520(%rbp), %rdi
	leaq	-3920(%rbp), %rsi
	leaq	-3320(%rbp), %rdx
	leaq	-4296(%rbp), %rcx
	leaq	-4328(%rbp), %r8
	callq	_ZN4seal9Evaluator14multiply_plainERKNS_10CiphertextERKNS_9PlaintextERS1_NS_16MemoryPoolHandleE
.Ltmp236:
	jmp	.LBB6_124
.LBB6_124:                              #   in Loop: Header=BB6_5 Depth=2
	leaq	-4328(%rbp), %rdi
	callq	_ZN4seal16MemoryPoolHandleD2Ev
.Ltmp238:
	movq	_ZSt4cout@GOTPCREL(%rip), %rdi
	leaq	.L.str.15(%rip), %rsi
	callq	_ZStlsISt11char_traitsIcEERSt13basic_ostreamIcT_ES5_PKc@PLT
.Ltmp239:
	movq	%rax, -5616(%rbp)               # 8-byte Spill
	jmp	.LBB6_125
.LBB6_125:                              #   in Loop: Header=BB6_5 Depth=2
	leaq	-4296(%rbp), %rdi
	callq	_ZN4seal10Ciphertext5scaleEv
	movsd	(%rax), %xmm0                   # xmm0 = mem[0],zero
	callq	log2@PLT
	movq	-5616(%rbp), %rdi               # 8-byte Reload
.Ltmp240:
	callq	_ZNSolsEd@PLT
.Ltmp241:
	movq	%rax, -5624(%rbp)               # 8-byte Spill
	jmp	.LBB6_126
.LBB6_126:                              #   in Loop: Header=BB6_5 Depth=2
.Ltmp242:
	movq	-5624(%rbp), %rdi               # 8-byte Reload
	leaq	.L.str.11(%rip), %rsi
	callq	_ZStlsISt11char_traitsIcEERSt13basic_ostreamIcT_ES5_PKc@PLT
.Ltmp243:
	movq	%rax, -5632(%rbp)               # 8-byte Spill
	jmp	.LBB6_127
.LBB6_127:                              #   in Loop: Header=BB6_5 Depth=2
.Ltmp244:
	movq	-5632(%rbp), %rdi               # 8-byte Reload
	movq	_ZSt4endlIcSt11char_traitsIcEERSt13basic_ostreamIT_T0_ES6_@GOTPCREL(%rip), %rsi
	callq	_ZNSolsEPFRSoS_E@PLT
.Ltmp245:
	jmp	.LBB6_128
.LBB6_128:                              #   in Loop: Header=BB6_5 Depth=2
.Ltmp246:
	leaq	-4344(%rbp), %rdi
	callq	_ZN4seal13MemoryManager7GetPoolEv
.Ltmp247:
	jmp	.LBB6_129
.LBB6_129:                              #   in Loop: Header=BB6_5 Depth=2
.Ltmp248:
	leaq	-2520(%rbp), %rdi
	leaq	-4296(%rbp), %rsi
	xorps	%xmm1, %xmm1
	xorl	%edx, %edx
	leaq	-4344(%rbp), %rcx
	movaps	%xmm1, %xmm0
	callq	_ZN4seal9Evaluator23rescale_to_next_inplaceERNS_10CiphertextEddiNS_16MemoryPoolHandleE
.Ltmp249:
	jmp	.LBB6_130
.LBB6_130:                              #   in Loop: Header=BB6_5 Depth=2
	leaq	-4344(%rbp), %rdi
	callq	_ZN4seal16MemoryPoolHandleD2Ev
.Ltmp251:
	movq	_ZSt4cout@GOTPCREL(%rip), %rdi
	leaq	.L.str.16(%rip), %rsi
	callq	_ZStlsISt11char_traitsIcEERSt13basic_ostreamIcT_ES5_PKc@PLT
.Ltmp252:
	movq	%rax, -5640(%rbp)               # 8-byte Spill
	jmp	.LBB6_131
.LBB6_131:                              #   in Loop: Header=BB6_5 Depth=2
	leaq	-4296(%rbp), %rdi
	callq	_ZN4seal10Ciphertext5scaleEv
	movsd	(%rax), %xmm0                   # xmm0 = mem[0],zero
	callq	log2@PLT
	movq	-5640(%rbp), %rdi               # 8-byte Reload
.Ltmp253:
	callq	_ZNSolsEd@PLT
.Ltmp254:
	movq	%rax, -5648(%rbp)               # 8-byte Spill
	jmp	.LBB6_132
.LBB6_132:                              #   in Loop: Header=BB6_5 Depth=2
.Ltmp255:
	movq	-5648(%rbp), %rdi               # 8-byte Reload
	leaq	.L.str.11(%rip), %rsi
	callq	_ZStlsISt11char_traitsIcEERSt13basic_ostreamIcT_ES5_PKc@PLT
.Ltmp256:
	movq	%rax, -5656(%rbp)               # 8-byte Spill
	jmp	.LBB6_133
.LBB6_133:                              #   in Loop: Header=BB6_5 Depth=2
.Ltmp257:
	movq	-5656(%rbp), %rdi               # 8-byte Reload
	movq	_ZSt4endlIcSt11char_traitsIcEERSt13basic_ostreamIT_T0_ES6_@GOTPCREL(%rip), %rsi
	callq	_ZNSolsEPFRSoS_E@PLT
.Ltmp258:
	jmp	.LBB6_134
.LBB6_134:                              #   in Loop: Header=BB6_5 Depth=2
.Ltmp259:
	movl	$277, %edi                      # imm = 0x115
	callq	_Z10print_linei
.Ltmp260:
	jmp	.LBB6_135
.LBB6_135:                              #   in Loop: Header=BB6_5 Depth=2
.Ltmp261:
	movq	_ZSt4cout@GOTPCREL(%rip), %rdi
	leaq	.L.str.17(%rip), %rsi
	callq	_ZStlsISt11char_traitsIcEERSt13basic_ostreamIcT_ES5_PKc@PLT
.Ltmp262:
	movq	%rax, -5664(%rbp)               # 8-byte Spill
	jmp	.LBB6_136
.LBB6_136:                              #   in Loop: Header=BB6_5 Depth=2
.Ltmp263:
	movq	-5664(%rbp), %rdi               # 8-byte Reload
	movq	_ZSt4endlIcSt11char_traitsIcEERSt13basic_ostreamIT_T0_ES6_@GOTPCREL(%rip), %rsi
	callq	_ZNSolsEPFRSoS_E@PLT
.Ltmp264:
	jmp	.LBB6_137
.LBB6_137:                              #   in Loop: Header=BB6_5 Depth=2
.Ltmp265:
	leaq	-4360(%rbp), %rdi
	callq	_ZN4seal13MemoryManager7GetPoolEv
.Ltmp266:
	jmp	.LBB6_138
.LBB6_138:                              #   in Loop: Header=BB6_5 Depth=2
.Ltmp267:
	leaq	-2520(%rbp), %rdi
	leaq	-4096(%rbp), %rsi
	leaq	-4296(%rbp), %rdx
	leaq	-4360(%rbp), %rcx
	callq	_ZN4seal9Evaluator16multiply_inplaceERNS_10CiphertextERKS1_NS_16MemoryPoolHandleE@PLT
.Ltmp268:
	jmp	.LBB6_139
.LBB6_139:                              #   in Loop: Header=BB6_5 Depth=2
	leaq	-4360(%rbp), %rdi
	callq	_ZN4seal16MemoryPoolHandleD2Ev
.Ltmp270:
	leaq	-4376(%rbp), %rdi
	callq	_ZN4seal13MemoryManager7GetPoolEv
.Ltmp271:
	jmp	.LBB6_140
.LBB6_140:                              #   in Loop: Header=BB6_5 Depth=2
.Ltmp272:
	leaq	-2520(%rbp), %rdi
	leaq	-4096(%rbp), %rsi
	leaq	-1800(%rbp), %rdx
	xorps	%xmm1, %xmm1
	xorl	%ecx, %ecx
	leaq	-4376(%rbp), %r8
	movaps	%xmm1, %xmm0
	callq	_ZN4seal9Evaluator19relinearize_inplaceERNS_10CiphertextERKNS_9RelinKeysEddiNS_16MemoryPoolHandleE
.Ltmp273:
	jmp	.LBB6_141
.LBB6_141:                              #   in Loop: Header=BB6_5 Depth=2
	leaq	-4376(%rbp), %rdi
	callq	_ZN4seal16MemoryPoolHandleD2Ev
.Ltmp275:
	movq	_ZSt4cout@GOTPCREL(%rip), %rdi
	leaq	.L.str.18(%rip), %rsi
	callq	_ZStlsISt11char_traitsIcEERSt13basic_ostreamIcT_ES5_PKc@PLT
.Ltmp276:
	movq	%rax, -5672(%rbp)               # 8-byte Spill
	jmp	.LBB6_142
.LBB6_142:                              #   in Loop: Header=BB6_5 Depth=2
	leaq	-4096(%rbp), %rdi
	callq	_ZN4seal10Ciphertext5scaleEv
	movsd	(%rax), %xmm0                   # xmm0 = mem[0],zero
	callq	log2@PLT
	movq	-5672(%rbp), %rdi               # 8-byte Reload
.Ltmp277:
	callq	_ZNSolsEd@PLT
.Ltmp278:
	movq	%rax, -5680(%rbp)               # 8-byte Spill
	jmp	.LBB6_143
.LBB6_143:                              #   in Loop: Header=BB6_5 Depth=2
.Ltmp279:
	movq	-5680(%rbp), %rdi               # 8-byte Reload
	leaq	.L.str.11(%rip), %rsi
	callq	_ZStlsISt11char_traitsIcEERSt13basic_ostreamIcT_ES5_PKc@PLT
.Ltmp280:
	movq	%rax, -5688(%rbp)               # 8-byte Spill
	jmp	.LBB6_144
.LBB6_144:                              #   in Loop: Header=BB6_5 Depth=2
.Ltmp281:
	movq	-5688(%rbp), %rdi               # 8-byte Reload
	movq	_ZSt4endlIcSt11char_traitsIcEERSt13basic_ostreamIT_T0_ES6_@GOTPCREL(%rip), %rsi
	callq	_ZNSolsEPFRSoS_E@PLT
.Ltmp282:
	jmp	.LBB6_145
.LBB6_145:                              #   in Loop: Header=BB6_5 Depth=2
.Ltmp283:
	movq	_ZSt4cout@GOTPCREL(%rip), %rdi
	leaq	.L.str.19(%rip), %rsi
	callq	_ZStlsISt11char_traitsIcEERSt13basic_ostreamIcT_ES5_PKc@PLT
.Ltmp284:
	movq	%rax, -5696(%rbp)               # 8-byte Spill
	jmp	.LBB6_146
.LBB6_146:                              #   in Loop: Header=BB6_5 Depth=2
.Ltmp285:
	movq	-5696(%rbp), %rdi               # 8-byte Reload
	movq	_ZSt4endlIcSt11char_traitsIcEERSt13basic_ostreamIT_T0_ES6_@GOTPCREL(%rip), %rsi
	callq	_ZNSolsEPFRSoS_E@PLT
.Ltmp286:
	jmp	.LBB6_147
.LBB6_147:                              #   in Loop: Header=BB6_5 Depth=2
	movq	$0, -4384(%rbp)
.LBB6_148:                              #   Parent Loop BB6_3 Depth=1
                                        #     Parent Loop BB6_5 Depth=2
                                        # =>    This Inner Loop Header: Depth=3
	movq	-4384(%rbp), %rax
	movq	%rax, -5704(%rbp)               # 8-byte Spill
	leaq	-4096(%rbp), %rdi
	callq	_ZNK4seal10Ciphertext9dyn_arrayEv
	movq	%rax, %rdi
	callq	_ZNK4seal8DynArrayImE4sizeEv
	movq	%rax, %rcx
	movq	-5704(%rbp), %rax               # 8-byte Reload
	cmpq	%rcx, %rax
	jae	.LBB6_180
# %bb.149:                              #   in Loop: Header=BB6_148 Depth=3
	leaq	-4096(%rbp), %rdi
	callq	_ZN4seal10Ciphertext4dataEv
	movq	-4384(%rbp), %rcx
	movq	(%rax,%rcx,8), %rsi
.Ltmp512:
	movq	_ZSt4cout@GOTPCREL(%rip), %rdi
	callq	_ZNSolsEm@PLT
.Ltmp513:
	movq	%rax, -5712(%rbp)               # 8-byte Spill
	jmp	.LBB6_150
.LBB6_150:                              #   in Loop: Header=BB6_148 Depth=3
.Ltmp514:
	movq	-5712(%rbp), %rdi               # 8-byte Reload
	leaq	.L.str.20(%rip), %rsi
	callq	_ZStlsISt11char_traitsIcEERSt13basic_ostreamIcT_ES5_PKc@PLT
.Ltmp515:
	jmp	.LBB6_151
.LBB6_151:                              #   in Loop: Header=BB6_148 Depth=3
	jmp	.LBB6_152
.LBB6_152:                              #   in Loop: Header=BB6_148 Depth=3
	movq	-4384(%rbp), %rax
	addq	$1, %rax
	movq	%rax, -4384(%rbp)
	jmp	.LBB6_148
.LBB6_153:
.Ltmp107:
	movq	%rax, %rcx
	movl	%edx, %eax
	movq	%rcx, -48(%rbp)
	movl	%eax, -52(%rbp)
	leaq	-3208(%rbp), %rdi
	callq	_ZNSt6vectorIdSaIdEED2Ev
	jmp	.LBB6_325
.LBB6_154:
.Ltmp116:
	movq	%rax, %rcx
	movl	%edx, %eax
	movq	%rcx, -48(%rbp)
	movl	%eax, -52(%rbp)
	leaq	-3336(%rbp), %rdi
	callq	_ZN4seal16MemoryPoolHandleD2Ev
	jmp	.LBB6_325
.LBB6_155:
.Ltmp119:
	movq	%rax, %rcx
	movl	%edx, %eax
	movq	%rcx, -48(%rbp)
	movl	%eax, -52(%rbp)
	jmp	.LBB6_324
.LBB6_156:
.Ltmp122:
	movq	%rax, %rcx
	movl	%edx, %eax
	movq	%rcx, -48(%rbp)
	movl	%eax, -52(%rbp)
	leaq	-3464(%rbp), %rdi
	callq	_ZN4seal16MemoryPoolHandleD2Ev
	jmp	.LBB6_324
.LBB6_157:
.Ltmp125:
	movq	%rax, %rcx
	movl	%edx, %eax
	movq	%rcx, -48(%rbp)
	movl	%eax, -52(%rbp)
	jmp	.LBB6_323
.LBB6_158:
.Ltmp128:
	movq	%rax, %rcx
	movl	%edx, %eax
	movq	%rcx, -48(%rbp)
	movl	%eax, -52(%rbp)
	leaq	-3592(%rbp), %rdi
	callq	_ZN4seal16MemoryPoolHandleD2Ev
	jmp	.LBB6_323
.LBB6_159:
.Ltmp146:
	movq	%rax, %rcx
	movl	%edx, %eax
	movq	%rcx, -48(%rbp)
	movl	%eax, -52(%rbp)
	jmp	.LBB6_322
.LBB6_160:
.Ltmp133:
	movq	%rax, %rcx
	movl	%edx, %eax
	movq	%rcx, -48(%rbp)
	movl	%eax, -52(%rbp)
	leaq	-3608(%rbp), %rdi
	callq	_ZN4seal16MemoryPoolHandleD2Ev
	jmp	.LBB6_322
.LBB6_161:
.Ltmp138:
	movq	%rax, %rcx
	movl	%edx, %eax
	movq	%rcx, -48(%rbp)
	movl	%eax, -52(%rbp)
	leaq	-3624(%rbp), %rdi
	callq	_ZN4seal16MemoryPoolHandleD2Ev
	jmp	.LBB6_322
.LBB6_162:
.Ltmp143:
	movq	%rax, %rcx
	movl	%edx, %eax
	movq	%rcx, -48(%rbp)
	movl	%eax, -52(%rbp)
	leaq	-3640(%rbp), %rdi
	callq	_ZN4seal16MemoryPoolHandleD2Ev
	jmp	.LBB6_322
.LBB6_163:
.Ltmp149:
	movq	%rax, %rcx
	movl	%edx, %eax
	movq	%rcx, -48(%rbp)
	movl	%eax, -52(%rbp)
	leaq	-3768(%rbp), %rdi
	callq	_ZN4seal16MemoryPoolHandleD2Ev
	jmp	.LBB6_322
.LBB6_164:
.Ltmp163:
	movq	%rax, %rcx
	movl	%edx, %eax
	movq	%rcx, -48(%rbp)
	movl	%eax, -52(%rbp)
	jmp	.LBB6_321
.LBB6_165:
.Ltmp160:
	movq	%rax, %rcx
	movl	%edx, %eax
	movq	%rcx, -48(%rbp)
	movl	%eax, -52(%rbp)
	leaq	-3784(%rbp), %rdi
	callq	_ZN4seal16MemoryPoolHandleD2Ev
	jmp	.LBB6_321
.LBB6_166:
.Ltmp166:
	movq	%rax, %rcx
	movl	%edx, %eax
	movq	%rcx, -48(%rbp)
	movl	%eax, -52(%rbp)
	leaq	-3936(%rbp), %rdi
	callq	_ZN4seal16MemoryPoolHandleD2Ev
	jmp	.LBB6_321
.LBB6_167:
.Ltmp174:
	movq	%rax, %rcx
	movl	%edx, %eax
	movq	%rcx, -48(%rbp)
	movl	%eax, -52(%rbp)
	jmp	.LBB6_320
.LBB6_168:
.Ltmp171:
	movq	%rax, %rcx
	movl	%edx, %eax
	movq	%rcx, -48(%rbp)
	movl	%eax, -52(%rbp)
	leaq	-3952(%rbp), %rdi
	callq	_ZN4seal16MemoryPoolHandleD2Ev
	jmp	.LBB6_320
.LBB6_169:
.Ltmp177:
	movq	%rax, %rcx
	movl	%edx, %eax
	movq	%rcx, -48(%rbp)
	movl	%eax, -52(%rbp)
	leaq	-4112(%rbp), %rdi
	callq	_ZN4seal16MemoryPoolHandleD2Ev
	jmp	.LBB6_320
.LBB6_170:
.Ltmp229:
	movq	%rax, %rcx
	movl	%edx, %eax
	movq	%rcx, -48(%rbp)
	movl	%eax, -52(%rbp)
	jmp	.LBB6_319
.LBB6_171:
.Ltmp188:
	movq	%rax, %rcx
	movl	%edx, %eax
	movq	%rcx, -48(%rbp)
	movl	%eax, -52(%rbp)
	leaq	-4128(%rbp), %rdi
	callq	_ZN4seal16MemoryPoolHandleD2Ev
	jmp	.LBB6_319
.LBB6_172:
.Ltmp193:
	movq	%rax, %rcx
	movl	%edx, %eax
	movq	%rcx, -48(%rbp)
	movl	%eax, -52(%rbp)
	leaq	-4144(%rbp), %rdi
	callq	_ZN4seal16MemoryPoolHandleD2Ev
	jmp	.LBB6_319
.LBB6_173:
.Ltmp212:
	movq	%rax, %rcx
	movl	%edx, %eax
	movq	%rcx, -48(%rbp)
	movl	%eax, -52(%rbp)
	leaq	-4160(%rbp), %rdi
	callq	_ZN4seal16MemoryPoolHandleD2Ev
	jmp	.LBB6_319
.LBB6_174:
.Ltmp232:
	movq	%rax, %rcx
	movl	%edx, %eax
	movq	%rcx, -48(%rbp)
	movl	%eax, -52(%rbp)
	leaq	-4312(%rbp), %rdi
	callq	_ZN4seal16MemoryPoolHandleD2Ev
	jmp	.LBB6_319
.LBB6_175:
.Ltmp516:
	movq	%rax, %rcx
	movl	%edx, %eax
	movq	%rcx, -48(%rbp)
	movl	%eax, -52(%rbp)
	jmp	.LBB6_318
.LBB6_176:
.Ltmp237:
	movq	%rax, %rcx
	movl	%edx, %eax
	movq	%rcx, -48(%rbp)
	movl	%eax, -52(%rbp)
	leaq	-4328(%rbp), %rdi
	callq	_ZN4seal16MemoryPoolHandleD2Ev
	jmp	.LBB6_318
.LBB6_177:
.Ltmp250:
	movq	%rax, %rcx
	movl	%edx, %eax
	movq	%rcx, -48(%rbp)
	movl	%eax, -52(%rbp)
	leaq	-4344(%rbp), %rdi
	callq	_ZN4seal16MemoryPoolHandleD2Ev
	jmp	.LBB6_318
.LBB6_178:
.Ltmp269:
	movq	%rax, %rcx
	movl	%edx, %eax
	movq	%rcx, -48(%rbp)
	movl	%eax, -52(%rbp)
	leaq	-4360(%rbp), %rdi
	callq	_ZN4seal16MemoryPoolHandleD2Ev
	jmp	.LBB6_318
.LBB6_179:
.Ltmp274:
	movq	%rax, %rcx
	movl	%edx, %eax
	movq	%rcx, -48(%rbp)
	movl	%eax, -52(%rbp)
	leaq	-4376(%rbp), %rdi
	callq	_ZN4seal16MemoryPoolHandleD2Ev
	jmp	.LBB6_318
.LBB6_180:                              #   in Loop: Header=BB6_5 Depth=2
.Ltmp287:
	movq	_ZSt4cout@GOTPCREL(%rip), %rdi
	movq	_ZSt4endlIcSt11char_traitsIcEERSt13basic_ostreamIT_T0_ES6_@GOTPCREL(%rip), %rsi
	callq	_ZNSolsEPFRSoS_E@PLT
.Ltmp288:
	jmp	.LBB6_181
.LBB6_181:                              #   in Loop: Header=BB6_5 Depth=2
.Ltmp289:
	leaq	-4400(%rbp), %rdi
	callq	_ZN4seal13MemoryManager7GetPoolEv
.Ltmp290:
	jmp	.LBB6_182
.LBB6_182:                              #   in Loop: Header=BB6_5 Depth=2
.Ltmp291:
	leaq	-2520(%rbp), %rdi
	leaq	-4096(%rbp), %rsi
	xorps	%xmm1, %xmm1
	xorl	%edx, %edx
	leaq	-4400(%rbp), %rcx
	movaps	%xmm1, %xmm0
	callq	_ZN4seal9Evaluator23rescale_to_next_inplaceERNS_10CiphertextEddiNS_16MemoryPoolHandleE
.Ltmp292:
	jmp	.LBB6_183
.LBB6_183:                              #   in Loop: Header=BB6_5 Depth=2
	leaq	-4400(%rbp), %rdi
	callq	_ZN4seal16MemoryPoolHandleD2Ev
.Ltmp294:
	movq	_ZSt4cout@GOTPCREL(%rip), %rdi
	leaq	.L.str.21(%rip), %rsi
	callq	_ZStlsISt11char_traitsIcEERSt13basic_ostreamIcT_ES5_PKc@PLT
.Ltmp295:
	movq	%rax, -5720(%rbp)               # 8-byte Spill
	jmp	.LBB6_184
.LBB6_184:                              #   in Loop: Header=BB6_5 Depth=2
	leaq	-4096(%rbp), %rdi
	callq	_ZN4seal10Ciphertext5scaleEv
	movsd	(%rax), %xmm0                   # xmm0 = mem[0],zero
	callq	log2@PLT
	movq	-5720(%rbp), %rdi               # 8-byte Reload
.Ltmp296:
	callq	_ZNSolsEd@PLT
.Ltmp297:
	movq	%rax, -5728(%rbp)               # 8-byte Spill
	jmp	.LBB6_185
.LBB6_185:                              #   in Loop: Header=BB6_5 Depth=2
.Ltmp298:
	movq	-5728(%rbp), %rdi               # 8-byte Reload
	leaq	.L.str.11(%rip), %rsi
	callq	_ZStlsISt11char_traitsIcEERSt13basic_ostreamIcT_ES5_PKc@PLT
.Ltmp299:
	movq	%rax, -5736(%rbp)               # 8-byte Spill
	jmp	.LBB6_186
.LBB6_186:                              #   in Loop: Header=BB6_5 Depth=2
.Ltmp300:
	movq	-5736(%rbp), %rdi               # 8-byte Reload
	movq	_ZSt4endlIcSt11char_traitsIcEERSt13basic_ostreamIT_T0_ES6_@GOTPCREL(%rip), %rsi
	callq	_ZNSolsEPFRSoS_E@PLT
.Ltmp301:
	jmp	.LBB6_187
.LBB6_187:                              #   in Loop: Header=BB6_5 Depth=2
.Ltmp302:
	movl	$334, %edi                      # imm = 0x14E
	callq	_Z10print_linei
.Ltmp303:
	jmp	.LBB6_188
.LBB6_188:                              #   in Loop: Header=BB6_5 Depth=2
.Ltmp304:
	movq	_ZSt4cout@GOTPCREL(%rip), %rdi
	leaq	.L.str.22(%rip), %rsi
	callq	_ZStlsISt11char_traitsIcEERSt13basic_ostreamIcT_ES5_PKc@PLT
.Ltmp305:
	movq	%rax, -5744(%rbp)               # 8-byte Spill
	jmp	.LBB6_189
.LBB6_189:                              #   in Loop: Header=BB6_5 Depth=2
.Ltmp306:
	movq	-5744(%rbp), %rdi               # 8-byte Reload
	movq	_ZSt4endlIcSt11char_traitsIcEERSt13basic_ostreamIT_T0_ES6_@GOTPCREL(%rip), %rsi
	callq	_ZNSolsEPFRSoS_E@PLT
.Ltmp307:
	jmp	.LBB6_190
.LBB6_190:                              #   in Loop: Header=BB6_5 Depth=2
.Ltmp308:
	leaq	-4416(%rbp), %rdi
	callq	_ZN4seal13MemoryManager7GetPoolEv
.Ltmp309:
	jmp	.LBB6_191
.LBB6_191:                              #   in Loop: Header=BB6_5 Depth=2
.Ltmp310:
	leaq	-2520(%rbp), %rdi
	leaq	-3920(%rbp), %rsi
	leaq	-3448(%rbp), %rdx
	leaq	-4416(%rbp), %rcx
	callq	_ZN4seal9Evaluator22multiply_plain_inplaceERNS_10CiphertextERKNS_9PlaintextENS_16MemoryPoolHandleE@PLT
.Ltmp311:
	jmp	.LBB6_192
.LBB6_192:                              #   in Loop: Header=BB6_5 Depth=2
	leaq	-4416(%rbp), %rdi
	callq	_ZN4seal16MemoryPoolHandleD2Ev
.Ltmp313:
	movq	_ZSt4cout@GOTPCREL(%rip), %rdi
	leaq	.L.str.23(%rip), %rsi
	callq	_ZStlsISt11char_traitsIcEERSt13basic_ostreamIcT_ES5_PKc@PLT
.Ltmp314:
	movq	%rax, -5752(%rbp)               # 8-byte Spill
	jmp	.LBB6_193
.LBB6_193:                              #   in Loop: Header=BB6_5 Depth=2
	leaq	-3920(%rbp), %rdi
	callq	_ZN4seal10Ciphertext5scaleEv
	movsd	(%rax), %xmm0                   # xmm0 = mem[0],zero
	callq	log2@PLT
	movq	-5752(%rbp), %rdi               # 8-byte Reload
.Ltmp315:
	callq	_ZNSolsEd@PLT
.Ltmp316:
	movq	%rax, -5760(%rbp)               # 8-byte Spill
	jmp	.LBB6_194
.LBB6_194:                              #   in Loop: Header=BB6_5 Depth=2
.Ltmp317:
	movq	-5760(%rbp), %rdi               # 8-byte Reload
	leaq	.L.str.11(%rip), %rsi
	callq	_ZStlsISt11char_traitsIcEERSt13basic_ostreamIcT_ES5_PKc@PLT
.Ltmp318:
	movq	%rax, -5768(%rbp)               # 8-byte Spill
	jmp	.LBB6_195
.LBB6_195:                              #   in Loop: Header=BB6_5 Depth=2
.Ltmp319:
	movq	-5768(%rbp), %rdi               # 8-byte Reload
	movq	_ZSt4endlIcSt11char_traitsIcEERSt13basic_ostreamIT_T0_ES6_@GOTPCREL(%rip), %rsi
	callq	_ZNSolsEPFRSoS_E@PLT
.Ltmp320:
	jmp	.LBB6_196
.LBB6_196:                              #   in Loop: Header=BB6_5 Depth=2
	movsd	-760(%rbp), %xmm0               # xmm0 = mem[0],zero
	movsd	%xmm0, -5776(%rbp)              # 8-byte Spill
.Ltmp321:
	leaq	-4432(%rbp), %rdi
	callq	_ZN4seal13MemoryManager7GetPoolEv
.Ltmp322:
	jmp	.LBB6_197
.LBB6_197:                              #   in Loop: Header=BB6_5 Depth=2
.Ltmp323:
	movsd	-5776(%rbp), %xmm1              # 8-byte Reload
                                        # xmm1 = mem[0],zero
	leaq	-2520(%rbp), %rdi
	leaq	-3920(%rbp), %rsi
	xorps	%xmm0, %xmm0
	movl	$1, %edx
	leaq	-4432(%rbp), %rcx
	callq	_ZN4seal9Evaluator23rescale_to_next_inplaceERNS_10CiphertextEddiNS_16MemoryPoolHandleE
.Ltmp324:
	jmp	.LBB6_198
.LBB6_198:                              #   in Loop: Header=BB6_5 Depth=2
	leaq	-4432(%rbp), %rdi
	callq	_ZN4seal16MemoryPoolHandleD2Ev
.Ltmp326:
	movq	_ZSt4cout@GOTPCREL(%rip), %rdi
	leaq	.L.str.24(%rip), %rsi
	callq	_ZStlsISt11char_traitsIcEERSt13basic_ostreamIcT_ES5_PKc@PLT
.Ltmp327:
	movq	%rax, -5784(%rbp)               # 8-byte Spill
	jmp	.LBB6_199
.LBB6_199:                              #   in Loop: Header=BB6_5 Depth=2
	leaq	-3920(%rbp), %rdi
	callq	_ZN4seal10Ciphertext5scaleEv
	movsd	(%rax), %xmm0                   # xmm0 = mem[0],zero
	callq	log2@PLT
	movq	-5784(%rbp), %rdi               # 8-byte Reload
.Ltmp328:
	callq	_ZNSolsEd@PLT
.Ltmp329:
	movq	%rax, -5792(%rbp)               # 8-byte Spill
	jmp	.LBB6_200
.LBB6_200:                              #   in Loop: Header=BB6_5 Depth=2
.Ltmp330:
	movq	-5792(%rbp), %rdi               # 8-byte Reload
	leaq	.L.str.11(%rip), %rsi
	callq	_ZStlsISt11char_traitsIcEERSt13basic_ostreamIcT_ES5_PKc@PLT
.Ltmp331:
	movq	%rax, -5800(%rbp)               # 8-byte Spill
	jmp	.LBB6_201
.LBB6_201:                              #   in Loop: Header=BB6_5 Depth=2
.Ltmp332:
	movq	-5800(%rbp), %rdi               # 8-byte Reload
	movq	_ZSt4endlIcSt11char_traitsIcEERSt13basic_ostreamIT_T0_ES6_@GOTPCREL(%rip), %rsi
	callq	_ZNSolsEPFRSoS_E@PLT
.Ltmp333:
	jmp	.LBB6_202
.LBB6_202:                              #   in Loop: Header=BB6_5 Depth=2
.Ltmp334:
	movq	_ZSt4cout@GOTPCREL(%rip), %rdi
	movq	_ZSt4endlIcSt11char_traitsIcEERSt13basic_ostreamIT_T0_ES6_@GOTPCREL(%rip), %rsi
	callq	_ZNSolsEPFRSoS_E@PLT
.Ltmp335:
	jmp	.LBB6_203
.LBB6_203:                              #   in Loop: Header=BB6_5 Depth=2
.Ltmp336:
	movl	$352, %edi                      # imm = 0x160
	callq	_Z10print_linei
.Ltmp337:
	jmp	.LBB6_204
.LBB6_204:                              #   in Loop: Header=BB6_5 Depth=2
.Ltmp338:
	movq	_ZSt4cout@GOTPCREL(%rip), %rdi
	leaq	.L.str.25(%rip), %rsi
	callq	_ZStlsISt11char_traitsIcEERSt13basic_ostreamIcT_ES5_PKc@PLT
.Ltmp339:
	movq	%rax, -5808(%rbp)               # 8-byte Spill
	jmp	.LBB6_205
.LBB6_205:                              #   in Loop: Header=BB6_5 Depth=2
.Ltmp340:
	movq	-5808(%rbp), %rdi               # 8-byte Reload
	movq	_ZSt4endlIcSt11char_traitsIcEERSt13basic_ostreamIT_T0_ES6_@GOTPCREL(%rip), %rsi
	callq	_ZNSolsEPFRSoS_E@PLT
.Ltmp341:
	jmp	.LBB6_206
.LBB6_206:                              #   in Loop: Header=BB6_5 Depth=2
.Ltmp342:
	movq	_ZSt4cout@GOTPCREL(%rip), %rdi
	leaq	.L.str.26(%rip), %rsi
	callq	_ZStlsISt11char_traitsIcEERSt13basic_ostreamIcT_ES5_PKc@PLT
.Ltmp343:
	movq	%rax, -5816(%rbp)               # 8-byte Spill
	jmp	.LBB6_207
.LBB6_207:                              #   in Loop: Header=BB6_5 Depth=2
	leaq	-4096(%rbp), %rdi
	callq	_ZN4seal10Ciphertext8parms_idEv
	movups	(%rax), %xmm0
	movups	16(%rax), %xmm1
	movaps	%xmm1, -4464(%rbp)
	movaps	%xmm0, -4480(%rbp)
.Ltmp344:
	movaps	-4480(%rbp), %xmm0
	movaps	-4464(%rbp), %xmm1
	movq	%rsp, %rax
	movups	%xmm1, 16(%rax)
	movups	%xmm0, (%rax)
	leaq	-4448(%rbp), %rdi
	leaq	-1040(%rbp), %rsi
	callq	_ZNK4seal11SEALContext16get_context_dataESt5arrayImLm4EE
.Ltmp345:
	jmp	.LBB6_208
.LBB6_208:                              #   in Loop: Header=BB6_5 Depth=2
	leaq	-4448(%rbp), %rdi
	callq	_ZNKSt19__shared_ptr_accessIKN4seal11SEALContext11ContextDataELN9__gnu_cxx12_Lock_policyE2ELb0ELb0EEptEv
	movq	%rax, %rdi
	callq	_ZNK4seal11SEALContext11ContextData11chain_indexEv
	movq	-5816(%rbp), %rdi               # 8-byte Reload
	movq	%rax, %rsi
.Ltmp346:
	callq	_ZNSolsEm@PLT
.Ltmp347:
	movq	%rax, -5824(%rbp)               # 8-byte Spill
	jmp	.LBB6_209
.LBB6_209:                              #   in Loop: Header=BB6_5 Depth=2
.Ltmp348:
	movq	-5824(%rbp), %rdi               # 8-byte Reload
	movq	_ZSt4endlIcSt11char_traitsIcEERSt13basic_ostreamIT_T0_ES6_@GOTPCREL(%rip), %rsi
	callq	_ZNSolsEPFRSoS_E@PLT
.Ltmp349:
	jmp	.LBB6_210
.LBB6_210:                              #   in Loop: Header=BB6_5 Depth=2
	leaq	-4448(%rbp), %rdi
	callq	_ZNSt10shared_ptrIKN4seal11SEALContext11ContextDataEED2Ev
.Ltmp351:
	movq	_ZSt4cout@GOTPCREL(%rip), %rdi
	leaq	.L.str.27(%rip), %rsi
	callq	_ZStlsISt11char_traitsIcEERSt13basic_ostreamIcT_ES5_PKc@PLT
.Ltmp352:
	movq	%rax, -5832(%rbp)               # 8-byte Spill
	jmp	.LBB6_211
.LBB6_211:                              #   in Loop: Header=BB6_5 Depth=2
	leaq	-3920(%rbp), %rdi
	callq	_ZN4seal10Ciphertext8parms_idEv
	movups	(%rax), %xmm0
	movups	16(%rax), %xmm1
	movaps	%xmm1, -4512(%rbp)
	movaps	%xmm0, -4528(%rbp)
.Ltmp353:
	movaps	-4528(%rbp), %xmm0
	movaps	-4512(%rbp), %xmm1
	movq	%rsp, %rax
	movups	%xmm1, 16(%rax)
	movups	%xmm0, (%rax)
	leaq	-4496(%rbp), %rdi
	leaq	-1040(%rbp), %rsi
	callq	_ZNK4seal11SEALContext16get_context_dataESt5arrayImLm4EE
.Ltmp354:
	jmp	.LBB6_212
.LBB6_212:                              #   in Loop: Header=BB6_5 Depth=2
	leaq	-4496(%rbp), %rdi
	callq	_ZNKSt19__shared_ptr_accessIKN4seal11SEALContext11ContextDataELN9__gnu_cxx12_Lock_policyE2ELb0ELb0EEptEv
	movq	%rax, %rdi
	callq	_ZNK4seal11SEALContext11ContextData11chain_indexEv
	movq	-5832(%rbp), %rdi               # 8-byte Reload
	movq	%rax, %rsi
.Ltmp355:
	callq	_ZNSolsEm@PLT
.Ltmp356:
	movq	%rax, -5840(%rbp)               # 8-byte Spill
	jmp	.LBB6_213
.LBB6_213:                              #   in Loop: Header=BB6_5 Depth=2
.Ltmp357:
	movq	-5840(%rbp), %rdi               # 8-byte Reload
	movq	_ZSt4endlIcSt11char_traitsIcEERSt13basic_ostreamIT_T0_ES6_@GOTPCREL(%rip), %rsi
	callq	_ZNSolsEPFRSoS_E@PLT
.Ltmp358:
	jmp	.LBB6_214
.LBB6_214:                              #   in Loop: Header=BB6_5 Depth=2
	leaq	-4496(%rbp), %rdi
	callq	_ZNSt10shared_ptrIKN4seal11SEALContext11ContextDataEED2Ev
.Ltmp360:
	movq	_ZSt4cout@GOTPCREL(%rip), %rdi
	leaq	.L.str.28(%rip), %rsi
	callq	_ZStlsISt11char_traitsIcEERSt13basic_ostreamIcT_ES5_PKc@PLT
.Ltmp361:
	movq	%rax, -5848(%rbp)               # 8-byte Spill
	jmp	.LBB6_215
.LBB6_215:                              #   in Loop: Header=BB6_5 Depth=2
	leaq	-3576(%rbp), %rdi
	callq	_ZN4seal9Plaintext8parms_idEv
	movups	(%rax), %xmm0
	movups	16(%rax), %xmm1
	movaps	%xmm1, -4560(%rbp)
	movaps	%xmm0, -4576(%rbp)
.Ltmp362:
	movaps	-4576(%rbp), %xmm0
	movaps	-4560(%rbp), %xmm1
	movq	%rsp, %rax
	movups	%xmm1, 16(%rax)
	movups	%xmm0, (%rax)
	leaq	-4544(%rbp), %rdi
	leaq	-1040(%rbp), %rsi
	callq	_ZNK4seal11SEALContext16get_context_dataESt5arrayImLm4EE
.Ltmp363:
	jmp	.LBB6_216
.LBB6_216:                              #   in Loop: Header=BB6_5 Depth=2
	leaq	-4544(%rbp), %rdi
	callq	_ZNKSt19__shared_ptr_accessIKN4seal11SEALContext11ContextDataELN9__gnu_cxx12_Lock_policyE2ELb0ELb0EEptEv
	movq	%rax, %rdi
	callq	_ZNK4seal11SEALContext11ContextData11chain_indexEv
	movq	-5848(%rbp), %rdi               # 8-byte Reload
	movq	%rax, %rsi
.Ltmp364:
	callq	_ZNSolsEm@PLT
.Ltmp365:
	movq	%rax, -5856(%rbp)               # 8-byte Spill
	jmp	.LBB6_217
.LBB6_217:                              #   in Loop: Header=BB6_5 Depth=2
.Ltmp366:
	movq	-5856(%rbp), %rdi               # 8-byte Reload
	movq	_ZSt4endlIcSt11char_traitsIcEERSt13basic_ostreamIT_T0_ES6_@GOTPCREL(%rip), %rsi
	callq	_ZNSolsEPFRSoS_E@PLT
.Ltmp367:
	jmp	.LBB6_218
.LBB6_218:                              #   in Loop: Header=BB6_5 Depth=2
	leaq	-4544(%rbp), %rdi
	callq	_ZNSt10shared_ptrIKN4seal11SEALContext11ContextDataEED2Ev
.Ltmp369:
	movq	_ZSt4cout@GOTPCREL(%rip), %rdi
	movq	_ZSt4endlIcSt11char_traitsIcEERSt13basic_ostreamIT_T0_ES6_@GOTPCREL(%rip), %rsi
	callq	_ZNSolsEPFRSoS_E@PLT
.Ltmp370:
	jmp	.LBB6_219
.LBB6_219:                              #   in Loop: Header=BB6_5 Depth=2
.Ltmp371:
	movl	$380, %edi                      # imm = 0x17C
	callq	_Z10print_linei
.Ltmp372:
	jmp	.LBB6_220
.LBB6_220:                              #   in Loop: Header=BB6_5 Depth=2
.Ltmp373:
	movq	_ZSt4cout@GOTPCREL(%rip), %rdi
	leaq	.L.str.29(%rip), %rsi
	callq	_ZStlsISt11char_traitsIcEERSt13basic_ostreamIcT_ES5_PKc@PLT
.Ltmp374:
	movq	%rax, -5864(%rbp)               # 8-byte Spill
	jmp	.LBB6_221
.LBB6_221:                              #   in Loop: Header=BB6_5 Depth=2
.Ltmp375:
	movq	-5864(%rbp), %rdi               # 8-byte Reload
	movq	_ZSt4endlIcSt11char_traitsIcEERSt13basic_ostreamIT_T0_ES6_@GOTPCREL(%rip), %rsi
	callq	_ZNSolsEPFRSoS_E@PLT
.Ltmp376:
	jmp	.LBB6_222
.LBB6_222:                              #   in Loop: Header=BB6_5 Depth=2
.Ltmp377:
	xorl	%eax, %eax
	movl	%eax, %esi
	leaq	-4840(%rbp), %rdi
	callq	_ZNSt9basic_iosIcSt11char_traitsIcEEC1EPSt15basic_streambufIcS1_E@PLT
.Ltmp378:
	jmp	.LBB6_223
.LBB6_223:                              #   in Loop: Header=BB6_5 Depth=2
	movq	_ZSt4cout@GOTPCREL(%rip), %rsi
	movq	(%rsi), %rax
	movq	-24(%rax), %rax
	addq	%rax, %rsi
.Ltmp379:
	leaq	-4840(%rbp), %rdi
	callq	_ZNSt9basic_iosIcSt11char_traitsIcEE7copyfmtERKS2_@PLT
.Ltmp380:
	jmp	.LBB6_224
.LBB6_224:                              #   in Loop: Header=BB6_5 Depth=2
.Ltmp381:
	movq	_ZSt4cout@GOTPCREL(%rip), %rdi
	leaq	_ZSt5fixedRSt8ios_base(%rip), %rsi
	callq	_ZNSolsEPFRSt8ios_baseS0_E@PLT
.Ltmp382:
	movq	%rax, -5872(%rbp)               # 8-byte Spill
	jmp	.LBB6_225
.LBB6_225:                              #   in Loop: Header=BB6_5 Depth=2
.Ltmp383:
	movl	$10, %edi
	callq	_ZSt12setprecisioni
.Ltmp384:
	movl	%eax, -5876(%rbp)               # 4-byte Spill
	jmp	.LBB6_226
.LBB6_226:                              #   in Loop: Header=BB6_5 Depth=2
	movq	-5872(%rbp), %rdi               # 8-byte Reload
	movl	-5876(%rbp), %eax               # 4-byte Reload
	movl	%eax, -4848(%rbp)
	movl	-4848(%rbp), %esi
.Ltmp385:
	callq	_ZStlsIcSt11char_traitsIcEERSt13basic_ostreamIT_T0_ES6_St13_Setprecision@PLT
.Ltmp386:
	jmp	.LBB6_227
.LBB6_227:                              #   in Loop: Header=BB6_5 Depth=2
.Ltmp387:
	movq	_ZSt4cout@GOTPCREL(%rip), %rdi
	leaq	.L.str.30(%rip), %rsi
	callq	_ZStlsISt11char_traitsIcEERSt13basic_ostreamIcT_ES5_PKc@PLT
.Ltmp388:
	movq	%rax, -5888(%rbp)               # 8-byte Spill
	jmp	.LBB6_228
.LBB6_228:                              #   in Loop: Header=BB6_5 Depth=2
	leaq	-4096(%rbp), %rdi
	callq	_ZN4seal10Ciphertext5scaleEv
	movq	-5888(%rbp), %rdi               # 8-byte Reload
	movsd	(%rax), %xmm0                   # xmm0 = mem[0],zero
.Ltmp389:
	callq	_ZNSolsEd@PLT
.Ltmp390:
	movq	%rax, -5896(%rbp)               # 8-byte Spill
	jmp	.LBB6_229
.LBB6_229:                              #   in Loop: Header=BB6_5 Depth=2
.Ltmp391:
	movq	-5896(%rbp), %rdi               # 8-byte Reload
	movq	_ZSt4endlIcSt11char_traitsIcEERSt13basic_ostreamIT_T0_ES6_@GOTPCREL(%rip), %rsi
	callq	_ZNSolsEPFRSoS_E@PLT
.Ltmp392:
	jmp	.LBB6_230
.LBB6_230:                              #   in Loop: Header=BB6_5 Depth=2
.Ltmp393:
	movq	_ZSt4cout@GOTPCREL(%rip), %rdi
	leaq	.L.str.31(%rip), %rsi
	callq	_ZStlsISt11char_traitsIcEERSt13basic_ostreamIcT_ES5_PKc@PLT
.Ltmp394:
	movq	%rax, -5904(%rbp)               # 8-byte Spill
	jmp	.LBB6_231
.LBB6_231:                              #   in Loop: Header=BB6_5 Depth=2
	leaq	-3920(%rbp), %rdi
	callq	_ZN4seal10Ciphertext5scaleEv
	movq	-5904(%rbp), %rdi               # 8-byte Reload
	movsd	(%rax), %xmm0                   # xmm0 = mem[0],zero
.Ltmp395:
	callq	_ZNSolsEd@PLT
.Ltmp396:
	movq	%rax, -5912(%rbp)               # 8-byte Spill
	jmp	.LBB6_232
.LBB6_232:                              #   in Loop: Header=BB6_5 Depth=2
.Ltmp397:
	movq	-5912(%rbp), %rdi               # 8-byte Reload
	movq	_ZSt4endlIcSt11char_traitsIcEERSt13basic_ostreamIT_T0_ES6_@GOTPCREL(%rip), %rsi
	callq	_ZNSolsEPFRSoS_E@PLT
.Ltmp398:
	jmp	.LBB6_233
.LBB6_233:                              #   in Loop: Header=BB6_5 Depth=2
.Ltmp399:
	movq	_ZSt4cout@GOTPCREL(%rip), %rdi
	leaq	.L.str.32(%rip), %rsi
	callq	_ZStlsISt11char_traitsIcEERSt13basic_ostreamIcT_ES5_PKc@PLT
.Ltmp400:
	movq	%rax, -5920(%rbp)               # 8-byte Spill
	jmp	.LBB6_234
.LBB6_234:                              #   in Loop: Header=BB6_5 Depth=2
	leaq	-3576(%rbp), %rdi
	callq	_ZN4seal9Plaintext5scaleEv
	movq	-5920(%rbp), %rdi               # 8-byte Reload
	movsd	(%rax), %xmm0                   # xmm0 = mem[0],zero
.Ltmp401:
	callq	_ZNSolsEd@PLT
.Ltmp402:
	movq	%rax, -5928(%rbp)               # 8-byte Spill
	jmp	.LBB6_235
.LBB6_235:                              #   in Loop: Header=BB6_5 Depth=2
.Ltmp403:
	movq	-5928(%rbp), %rdi               # 8-byte Reload
	movq	_ZSt4endlIcSt11char_traitsIcEERSt13basic_ostreamIT_T0_ES6_@GOTPCREL(%rip), %rsi
	callq	_ZNSolsEPFRSoS_E@PLT
.Ltmp404:
	jmp	.LBB6_236
.LBB6_236:                              #   in Loop: Header=BB6_5 Depth=2
.Ltmp405:
	movq	_ZSt4cout@GOTPCREL(%rip), %rdi
	movq	_ZSt4endlIcSt11char_traitsIcEERSt13basic_ostreamIT_T0_ES6_@GOTPCREL(%rip), %rsi
	callq	_ZNSolsEPFRSoS_E@PLT
.Ltmp406:
	jmp	.LBB6_237
.LBB6_237:                              #   in Loop: Header=BB6_5 Depth=2
	movq	_ZSt4cout@GOTPCREL(%rip), %rdi
	movq	(%rdi), %rax
	movq	-24(%rax), %rax
	addq	%rax, %rdi
.Ltmp407:
	leaq	-4840(%rbp), %rsi
	callq	_ZNSt9basic_iosIcSt11char_traitsIcEE7copyfmtERKS2_@PLT
.Ltmp408:
	jmp	.LBB6_238
.LBB6_238:                              #   in Loop: Header=BB6_5 Depth=2
.Ltmp409:
	movl	$408, %edi                      # imm = 0x198
	callq	_Z10print_linei
.Ltmp410:
	jmp	.LBB6_239
.LBB6_239:                              #   in Loop: Header=BB6_5 Depth=2
.Ltmp411:
	movq	_ZSt4cout@GOTPCREL(%rip), %rdi
	leaq	.L.str.33(%rip), %rsi
	callq	_ZStlsISt11char_traitsIcEERSt13basic_ostreamIcT_ES5_PKc@PLT
.Ltmp412:
	movq	%rax, -5936(%rbp)               # 8-byte Spill
	jmp	.LBB6_240
.LBB6_240:                              #   in Loop: Header=BB6_5 Depth=2
.Ltmp413:
	movq	-5936(%rbp), %rdi               # 8-byte Reload
	movq	_ZSt4endlIcSt11char_traitsIcEERSt13basic_ostreamIT_T0_ES6_@GOTPCREL(%rip), %rsi
	callq	_ZNSolsEPFRSoS_E@PLT
.Ltmp414:
	jmp	.LBB6_241
.LBB6_241:                              #   in Loop: Header=BB6_5 Depth=2
.Ltmp415:
	movsd	.LCPI6_0(%rip), %xmm0           # xmm0 = mem[0],zero
	movl	$40, %edi
	callq	_ZSt3powIdiEN9__gnu_cxx11__promote_2IT_T0_NS0_9__promoteIS2_Xsr3std12__is_integerIS2_EE7__valueEE6__typeENS4_IS3_Xsr3std12__is_integerIS3_EE7__valueEE6__typeEE6__typeES2_S3_
.Ltmp416:
	movsd	%xmm0, -5944(%rbp)              # 8-byte Spill
	jmp	.LBB6_242
.LBB6_242:                              #   in Loop: Header=BB6_5 Depth=2
	leaq	-4096(%rbp), %rdi
	callq	_ZN4seal10Ciphertext5scaleEv
	movsd	-5944(%rbp), %xmm0              # 8-byte Reload
                                        # xmm0 = mem[0],zero
	movsd	%xmm0, (%rax)
.Ltmp417:
	movsd	.LCPI6_0(%rip), %xmm0           # xmm0 = mem[0],zero
	movl	$40, %edi
	callq	_ZSt3powIdiEN9__gnu_cxx11__promote_2IT_T0_NS0_9__promoteIS2_Xsr3std12__is_integerIS2_EE7__valueEE6__typeENS4_IS3_Xsr3std12__is_integerIS3_EE7__valueEE6__typeEE6__typeES2_S3_
.Ltmp418:
	movsd	%xmm0, -5952(%rbp)              # 8-byte Spill
	jmp	.LBB6_243
.LBB6_243:                              #   in Loop: Header=BB6_5 Depth=2
	leaq	-3920(%rbp), %rdi
	callq	_ZN4seal10Ciphertext5scaleEv
	movsd	-5952(%rbp), %xmm0              # 8-byte Reload
                                        # xmm0 = mem[0],zero
	movsd	%xmm0, (%rax)
.Ltmp419:
	movl	$419, %edi                      # imm = 0x1A3
	callq	_Z10print_linei
.Ltmp420:
	jmp	.LBB6_244
.LBB6_244:                              #   in Loop: Header=BB6_5 Depth=2
.Ltmp421:
	movq	_ZSt4cout@GOTPCREL(%rip), %rdi
	leaq	.L.str.34(%rip), %rsi
	callq	_ZStlsISt11char_traitsIcEERSt13basic_ostreamIcT_ES5_PKc@PLT
.Ltmp422:
	movq	%rax, -5960(%rbp)               # 8-byte Spill
	jmp	.LBB6_245
.LBB6_245:                              #   in Loop: Header=BB6_5 Depth=2
.Ltmp423:
	movq	-5960(%rbp), %rdi               # 8-byte Reload
	movq	_ZSt4endlIcSt11char_traitsIcEERSt13basic_ostreamIT_T0_ES6_@GOTPCREL(%rip), %rsi
	callq	_ZNSolsEPFRSoS_E@PLT
.Ltmp424:
	jmp	.LBB6_246
.LBB6_246:                              #   in Loop: Header=BB6_5 Depth=2
	leaq	-4096(%rbp), %rdi
	callq	_ZN4seal10Ciphertext8parms_idEv
	movups	(%rax), %xmm0
	movups	16(%rax), %xmm1
	movaps	%xmm1, -4864(%rbp)
	movaps	%xmm0, -4880(%rbp)
	movaps	-4880(%rbp), %xmm0
	movaps	-4864(%rbp), %xmm1
	movaps	%xmm1, -4896(%rbp)
	movaps	%xmm0, -4912(%rbp)
.Ltmp425:
	leaq	-4928(%rbp), %rdi
	callq	_ZN4seal13MemoryManager7GetPoolEv
.Ltmp426:
	jmp	.LBB6_247
.LBB6_247:                              #   in Loop: Header=BB6_5 Depth=2
.Ltmp427:
	movaps	-4912(%rbp), %xmm0
	movaps	-4896(%rbp), %xmm1
	movq	%rsp, %rax
	movups	%xmm1, 16(%rax)
	movups	%xmm0, (%rax)
	leaq	-2520(%rbp), %rdi
	leaq	-3920(%rbp), %rsi
	leaq	-4928(%rbp), %rdx
	callq	_ZN4seal9Evaluator21mod_switch_to_inplaceERNS_10CiphertextESt5arrayImLm4EENS_16MemoryPoolHandleE@PLT
.Ltmp428:
	jmp	.LBB6_248
.LBB6_248:                              #   in Loop: Header=BB6_5 Depth=2
	leaq	-4928(%rbp), %rdi
	callq	_ZN4seal16MemoryPoolHandleD2Ev
	movaps	-4880(%rbp), %xmm0
	movaps	-4864(%rbp), %xmm1
	movaps	%xmm1, -4944(%rbp)
	movaps	%xmm0, -4960(%rbp)
.Ltmp430:
	movaps	-4960(%rbp), %xmm0
	movaps	-4944(%rbp), %xmm1
	movq	%rsp, %rax
	movups	%xmm1, 16(%rax)
	movups	%xmm0, (%rax)
	leaq	-2520(%rbp), %rdi
	leaq	-3576(%rbp), %rsi
	callq	_ZN4seal9Evaluator21mod_switch_to_inplaceERNS_9PlaintextESt5arrayImLm4EE@PLT
.Ltmp431:
	jmp	.LBB6_249
.LBB6_249:                              #   in Loop: Header=BB6_5 Depth=2
.Ltmp432:
	movl	$428, %edi                      # imm = 0x1AC
	callq	_Z10print_linei
.Ltmp433:
	jmp	.LBB6_250
.LBB6_250:                              #   in Loop: Header=BB6_5 Depth=2
.Ltmp434:
	movq	_ZSt4cout@GOTPCREL(%rip), %rdi
	leaq	.L.str.35(%rip), %rsi
	callq	_ZStlsISt11char_traitsIcEERSt13basic_ostreamIcT_ES5_PKc@PLT
.Ltmp435:
	movq	%rax, -5968(%rbp)               # 8-byte Spill
	jmp	.LBB6_251
.LBB6_251:                              #   in Loop: Header=BB6_5 Depth=2
.Ltmp436:
	movq	-5968(%rbp), %rdi               # 8-byte Reload
	movq	_ZSt4endlIcSt11char_traitsIcEERSt13basic_ostreamIT_T0_ES6_@GOTPCREL(%rip), %rsi
	callq	_ZNSolsEPFRSoS_E@PLT
.Ltmp437:
	jmp	.LBB6_252
.LBB6_252:                              #   in Loop: Header=BB6_5 Depth=2
.Ltmp438:
	leaq	-5112(%rbp), %rdi
	callq	_ZN4seal13MemoryManager7GetPoolEv
.Ltmp439:
	jmp	.LBB6_253
.LBB6_253:                              #   in Loop: Header=BB6_5 Depth=2
.Ltmp441:
	leaq	-5096(%rbp), %rdi
	leaq	-5112(%rbp), %rsi
	callq	_ZN4seal10CiphertextC2ENS_16MemoryPoolHandleE
.Ltmp442:
	jmp	.LBB6_254
.LBB6_254:                              #   in Loop: Header=BB6_5 Depth=2
	leaq	-5112(%rbp), %rdi
	callq	_ZN4seal16MemoryPoolHandleD2Ev
.Ltmp444:
	leaq	-2520(%rbp), %rdi
	leaq	-4096(%rbp), %rsi
	leaq	-3920(%rbp), %rdx
	leaq	-5096(%rbp), %rcx
	callq	_ZN4seal9Evaluator3addERKNS_10CiphertextES3_RS1_
.Ltmp445:
	jmp	.LBB6_255
.LBB6_255:                              #   in Loop: Header=BB6_5 Depth=2
.Ltmp446:
	leaq	-2520(%rbp), %rdi
	leaq	-5096(%rbp), %rsi
	leaq	-3576(%rbp), %rdx
	callq	_ZN4seal9Evaluator17add_plain_inplaceERNS_10CiphertextERKNS_9PlaintextE@PLT
.Ltmp447:
	jmp	.LBB6_256
.LBB6_256:                              #   in Loop: Header=BB6_5 Depth=2
.Ltmp448:
	leaq	-5240(%rbp), %rdi
	callq	_ZN4seal13MemoryManager7GetPoolEv
.Ltmp449:
	jmp	.LBB6_257
.LBB6_257:                              #   in Loop: Header=BB6_5 Depth=2
.Ltmp451:
	leaq	-5224(%rbp), %rdi
	leaq	-5240(%rbp), %rsi
	callq	_ZN4seal9PlaintextC2ENS_16MemoryPoolHandleE
.Ltmp452:
	jmp	.LBB6_258
.LBB6_258:                              #   in Loop: Header=BB6_5 Depth=2
	leaq	-5240(%rbp), %rdi
	callq	_ZN4seal16MemoryPoolHandleD2Ev
.Ltmp454:
	movl	$438, %edi                      # imm = 0x1B6
	callq	_Z10print_linei
.Ltmp455:
	jmp	.LBB6_259
.LBB6_259:                              #   in Loop: Header=BB6_5 Depth=2
.Ltmp456:
	movq	_ZSt4cout@GOTPCREL(%rip), %rdi
	leaq	.L.str.36(%rip), %rsi
	callq	_ZStlsISt11char_traitsIcEERSt13basic_ostreamIcT_ES5_PKc@PLT
.Ltmp457:
	movq	%rax, -5976(%rbp)               # 8-byte Spill
	jmp	.LBB6_260
.LBB6_260:                              #   in Loop: Header=BB6_5 Depth=2
.Ltmp458:
	movq	-5976(%rbp), %rdi               # 8-byte Reload
	movq	_ZSt4endlIcSt11char_traitsIcEERSt13basic_ostreamIT_T0_ES6_@GOTPCREL(%rip), %rsi
	callq	_ZNSolsEPFRSoS_E@PLT
.Ltmp459:
	jmp	.LBB6_261
.LBB6_261:                              #   in Loop: Header=BB6_5 Depth=2
.Ltmp460:
	movq	_ZSt4cout@GOTPCREL(%rip), %rdi
	leaq	.L.str.37(%rip), %rsi
	callq	_ZStlsISt11char_traitsIcEERSt13basic_ostreamIcT_ES5_PKc@PLT
.Ltmp461:
	movq	%rax, -5984(%rbp)               # 8-byte Spill
	jmp	.LBB6_262
.LBB6_262:                              #   in Loop: Header=BB6_5 Depth=2
.Ltmp462:
	movq	-5984(%rbp), %rdi               # 8-byte Reload
	movq	_ZSt4endlIcSt11char_traitsIcEERSt13basic_ostreamIT_T0_ES6_@GOTPCREL(%rip), %rsi
	callq	_ZNSolsEPFRSoS_E@PLT
.Ltmp463:
	jmp	.LBB6_263
.LBB6_263:                              #   in Loop: Header=BB6_5 Depth=2
	leaq	-5264(%rbp), %rdi
	callq	_ZNSt6vectorIdSaIdEEC2Ev
	movq	$0, -5272(%rbp)
.LBB6_264:                              #   Parent Loop BB6_3 Depth=1
                                        #     Parent Loop BB6_5 Depth=2
                                        # =>    This Inner Loop Header: Depth=3
	movq	-5272(%rbp), %rax
	movq	%rax, -5992(%rbp)               # 8-byte Spill
	leaq	-3160(%rbp), %rdi
	callq	_ZNKSt6vectorIdSaIdEE4sizeEv
	movq	%rax, %rcx
	movq	-5992(%rbp), %rax               # 8-byte Reload
	cmpq	%rcx, %rax
	jae	.LBB6_281
# %bb.265:                              #   in Loop: Header=BB6_264 Depth=3
	movq	-5272(%rbp), %rsi
	leaq	-3160(%rbp), %rdi
	callq	_ZNSt6vectorIdSaIdEEixEm
	movsd	(%rax), %xmm0                   # xmm0 = mem[0],zero
	movsd	%xmm0, -5280(%rbp)
	movsd	-5280(%rbp), %xmm1              # xmm1 = mem[0],zero
	movsd	.LCPI6_4(%rip), %xmm2           # xmm2 = mem[0],zero
	movaps	%xmm1, %xmm0
	mulsd	%xmm2, %xmm0
	mulsd	%xmm1, %xmm0
	movsd	.LCPI6_5(%rip), %xmm2           # xmm2 = mem[0],zero
	addsd	%xmm2, %xmm0
	mulsd	%xmm1, %xmm0
	movsd	.LCPI6_1(%rip), %xmm1           # xmm1 = mem[0],zero
	addsd	%xmm1, %xmm0
	movsd	%xmm0, -5288(%rbp)
.Ltmp509:
	leaq	-5264(%rbp), %rdi
	leaq	-5288(%rbp), %rsi
	callq	_ZNSt6vectorIdSaIdEE9push_backEOd
.Ltmp510:
	jmp	.LBB6_266
.LBB6_266:                              #   in Loop: Header=BB6_264 Depth=3
	jmp	.LBB6_267
.LBB6_267:                              #   in Loop: Header=BB6_264 Depth=3
	movq	-5272(%rbp), %rax
	addq	$1, %rax
	movq	%rax, -5272(%rbp)
	jmp	.LBB6_264
.LBB6_268:
.Ltmp293:
	movq	%rax, %rcx
	movl	%edx, %eax
	movq	%rcx, -48(%rbp)
	movl	%eax, -52(%rbp)
	leaq	-4400(%rbp), %rdi
	callq	_ZN4seal16MemoryPoolHandleD2Ev
	jmp	.LBB6_318
.LBB6_269:
.Ltmp312:
	movq	%rax, %rcx
	movl	%edx, %eax
	movq	%rcx, -48(%rbp)
	movl	%eax, -52(%rbp)
	leaq	-4416(%rbp), %rdi
	callq	_ZN4seal16MemoryPoolHandleD2Ev
	jmp	.LBB6_318
.LBB6_270:
.Ltmp325:
	movq	%rax, %rcx
	movl	%edx, %eax
	movq	%rcx, -48(%rbp)
	movl	%eax, -52(%rbp)
	leaq	-4432(%rbp), %rdi
	callq	_ZN4seal16MemoryPoolHandleD2Ev
	jmp	.LBB6_318
.LBB6_271:
.Ltmp350:
	movq	%rax, %rcx
	movl	%edx, %eax
	movq	%rcx, -48(%rbp)
	movl	%eax, -52(%rbp)
	leaq	-4448(%rbp), %rdi
	callq	_ZNSt10shared_ptrIKN4seal11SEALContext11ContextDataEED2Ev
	jmp	.LBB6_318
.LBB6_272:
.Ltmp359:
	movq	%rax, %rcx
	movl	%edx, %eax
	movq	%rcx, -48(%rbp)
	movl	%eax, -52(%rbp)
	leaq	-4496(%rbp), %rdi
	callq	_ZNSt10shared_ptrIKN4seal11SEALContext11ContextDataEED2Ev
	jmp	.LBB6_318
.LBB6_273:
.Ltmp368:
	movq	%rax, %rcx
	movl	%edx, %eax
	movq	%rcx, -48(%rbp)
	movl	%eax, -52(%rbp)
	leaq	-4544(%rbp), %rdi
	callq	_ZNSt10shared_ptrIKN4seal11SEALContext11ContextDataEED2Ev
	jmp	.LBB6_318
.LBB6_274:
.Ltmp440:
	movq	%rax, %rcx
	movl	%edx, %eax
	movq	%rcx, -48(%rbp)
	movl	%eax, -52(%rbp)
	jmp	.LBB6_317
.LBB6_275:
.Ltmp429:
	movq	%rax, %rcx
	movl	%edx, %eax
	movq	%rcx, -48(%rbp)
	movl	%eax, -52(%rbp)
	leaq	-4928(%rbp), %rdi
	callq	_ZN4seal16MemoryPoolHandleD2Ev
	jmp	.LBB6_317
.LBB6_276:
.Ltmp443:
	movq	%rax, %rcx
	movl	%edx, %eax
	movq	%rcx, -48(%rbp)
	movl	%eax, -52(%rbp)
	leaq	-5112(%rbp), %rdi
	callq	_ZN4seal16MemoryPoolHandleD2Ev
	jmp	.LBB6_317
.LBB6_277:
.Ltmp450:
	movq	%rax, %rcx
	movl	%edx, %eax
	movq	%rcx, -48(%rbp)
	movl	%eax, -52(%rbp)
	jmp	.LBB6_316
.LBB6_278:
.Ltmp453:
	movq	%rax, %rcx
	movl	%edx, %eax
	movq	%rcx, -48(%rbp)
	movl	%eax, -52(%rbp)
	leaq	-5240(%rbp), %rdi
	callq	_ZN4seal16MemoryPoolHandleD2Ev
	jmp	.LBB6_316
.LBB6_279:
.Ltmp464:
	movq	%rax, %rcx
	movl	%edx, %eax
	movq	%rcx, -48(%rbp)
	movl	%eax, -52(%rbp)
	jmp	.LBB6_315
.LBB6_280:
.Ltmp511:
	movq	%rax, %rcx
	movl	%edx, %eax
	movq	%rcx, -48(%rbp)
	movl	%eax, -52(%rbp)
	jmp	.LBB6_314
.LBB6_281:                              #   in Loop: Header=BB6_5 Depth=2
.Ltmp465:
	leaq	-5312(%rbp), %rdi
	leaq	-5264(%rbp), %rsi
	callq	_ZNSt6vectorIdSaIdEEC2ERKS1_
.Ltmp466:
	jmp	.LBB6_282
.LBB6_282:                              #   in Loop: Header=BB6_5 Depth=2
.Ltmp467:
	leaq	-5312(%rbp), %rdi
	movl	$3, %esi
	movl	$7, %edx
	callq	_Z12print_vectorIdEvSt6vectorIT_SaIS1_EEmi
.Ltmp468:
	jmp	.LBB6_283
.LBB6_283:                              #   in Loop: Header=BB6_5 Depth=2
	leaq	-5312(%rbp), %rdi
	callq	_ZNSt6vectorIdSaIdEED2Ev
.Ltmp470:
	leaq	-2808(%rbp), %rdi
	leaq	-5096(%rbp), %rsi
	leaq	-5224(%rbp), %rdx
	callq	_ZN4seal9Decryptor7decryptERKNS_10CiphertextERNS_9PlaintextE@PLT
.Ltmp471:
	jmp	.LBB6_284
.LBB6_284:                              #   in Loop: Header=BB6_5 Depth=2
	leaq	-5336(%rbp), %rdi
	callq	_ZNSt6vectorIdSaIdEEC2Ev
.Ltmp472:
	leaq	-5352(%rbp), %rdi
	callq	_ZN4seal13MemoryManager7GetPoolEv
.Ltmp473:
	jmp	.LBB6_285
.LBB6_285:                              #   in Loop: Header=BB6_5 Depth=2
.Ltmp474:
	leaq	-3128(%rbp), %rdi
	leaq	-5224(%rbp), %rsi
	leaq	-5336(%rbp), %rdx
	leaq	-5352(%rbp), %rcx
	callq	_ZN4seal11CKKSEncoder6decodeIdvEEvRKNS_9PlaintextERSt6vectorIT_SaIS6_EENS_16MemoryPoolHandleE
.Ltmp475:
	jmp	.LBB6_286
.LBB6_286:                              #   in Loop: Header=BB6_5 Depth=2
	leaq	-5352(%rbp), %rdi
	callq	_ZN4seal16MemoryPoolHandleD2Ev
.Ltmp477:
	movq	_ZSt4cout@GOTPCREL(%rip), %rdi
	leaq	.L.str.38(%rip), %rsi
	callq	_ZStlsISt11char_traitsIcEERSt13basic_ostreamIcT_ES5_PKc@PLT
.Ltmp478:
	movq	%rax, -6000(%rbp)               # 8-byte Spill
	jmp	.LBB6_287
.LBB6_287:                              #   in Loop: Header=BB6_5 Depth=2
.Ltmp479:
	movq	-6000(%rbp), %rdi               # 8-byte Reload
	movq	_ZSt4endlIcSt11char_traitsIcEERSt13basic_ostreamIT_T0_ES6_@GOTPCREL(%rip), %rsi
	callq	_ZNSolsEPFRSoS_E@PLT
.Ltmp480:
	jmp	.LBB6_288
.LBB6_288:                              #   in Loop: Header=BB6_5 Depth=2
.Ltmp481:
	leaq	-5376(%rbp), %rdi
	leaq	-5336(%rbp), %rsi
	callq	_ZNSt6vectorIdSaIdEEC2ERKS1_
.Ltmp482:
	jmp	.LBB6_289
.LBB6_289:                              #   in Loop: Header=BB6_5 Depth=2
.Ltmp483:
	leaq	-5376(%rbp), %rdi
	movl	$3, %esi
	movl	$7, %edx
	callq	_Z12print_vectorIdEvSt6vectorIT_SaIS1_EEmi
.Ltmp484:
	jmp	.LBB6_290
.LBB6_290:                              #   in Loop: Header=BB6_5 Depth=2
	leaq	-5376(%rbp), %rdi
	callq	_ZNSt6vectorIdSaIdEED2Ev
	leaq	-5336(%rbp), %rdi
	callq	_ZNKSt6vectorIdSaIdEE4sizeEv
	movq	%rax, -6008(%rbp)               # 8-byte Spill
	leaq	-5264(%rbp), %rdi
	callq	_ZNKSt6vectorIdSaIdEE4sizeEv
	movq	%rax, %rcx
	movq	-6008(%rbp), %rax               # 8-byte Reload
	cmpq	%rcx, %rax
	jne	.LBB6_311
# %bb.291:                              #   in Loop: Header=BB6_5 Depth=2
	xorps	%xmm0, %xmm0
	movsd	%xmm0, -5384(%rbp)
	movl	$0, -5396(%rbp)
.LBB6_292:                              #   Parent Loop BB6_3 Depth=1
                                        #     Parent Loop BB6_5 Depth=2
                                        # =>    This Inner Loop Header: Depth=3
	movslq	-5396(%rbp), %rax
	movq	%rax, -6016(%rbp)               # 8-byte Spill
	leaq	-5336(%rbp), %rdi
	callq	_ZNKSt6vectorIdSaIdEE4sizeEv
	movq	%rax, %rcx
	movq	-6016(%rbp), %rax               # 8-byte Reload
	cmpq	%rcx, %rax
	jae	.LBB6_300
# %bb.293:                              #   in Loop: Header=BB6_292 Depth=3
	movslq	-5396(%rbp), %rsi
	leaq	-5336(%rbp), %rdi
	callq	_ZNSt6vectorIdSaIdEEixEm
	movsd	(%rax), %xmm0                   # xmm0 = mem[0],zero
	movsd	%xmm0, -6032(%rbp)              # 8-byte Spill
	movslq	-5396(%rbp), %rsi
	leaq	-5264(%rbp), %rdi
	callq	_ZNSt6vectorIdSaIdEEixEm
	movsd	-6032(%rbp), %xmm0              # 8-byte Reload
                                        # xmm0 = mem[0],zero
	movsd	(%rax), %xmm1                   # xmm1 = mem[0],zero
	subsd	%xmm1, %xmm0
.Ltmp506:
	movl	$2, %edi
	callq	_ZSt3powIdiEN9__gnu_cxx11__promote_2IT_T0_NS0_9__promoteIS2_Xsr3std12__is_integerIS2_EE7__valueEE6__typeENS4_IS3_Xsr3std12__is_integerIS3_EE7__valueEE6__typeEE6__typeES2_S3_
.Ltmp507:
	movsd	%xmm0, -6024(%rbp)              # 8-byte Spill
	jmp	.LBB6_294
.LBB6_294:                              #   in Loop: Header=BB6_292 Depth=3
	movsd	-6024(%rbp), %xmm0              # 8-byte Reload
                                        # xmm0 = mem[0],zero
	addsd	-5384(%rbp), %xmm0
	movsd	%xmm0, -5384(%rbp)
# %bb.295:                              #   in Loop: Header=BB6_292 Depth=3
	movl	-5396(%rbp), %eax
	addl	$1, %eax
	movl	%eax, -5396(%rbp)
	jmp	.LBB6_292
.LBB6_296:
.Ltmp469:
	movq	%rax, %rcx
	movl	%edx, %eax
	movq	%rcx, -48(%rbp)
	movl	%eax, -52(%rbp)
	leaq	-5312(%rbp), %rdi
	callq	_ZNSt6vectorIdSaIdEED2Ev
	jmp	.LBB6_314
.LBB6_297:
.Ltmp508:
	movq	%rax, %rcx
	movl	%edx, %eax
	movq	%rcx, -48(%rbp)
	movl	%eax, -52(%rbp)
	jmp	.LBB6_313
.LBB6_298:
.Ltmp476:
	movq	%rax, %rcx
	movl	%edx, %eax
	movq	%rcx, -48(%rbp)
	movl	%eax, -52(%rbp)
	leaq	-5352(%rbp), %rdi
	callq	_ZN4seal16MemoryPoolHandleD2Ev
	jmp	.LBB6_313
.LBB6_299:
.Ltmp485:
	movq	%rax, %rcx
	movl	%edx, %eax
	movq	%rcx, -48(%rbp)
	movl	%eax, -52(%rbp)
	leaq	-5376(%rbp), %rdi
	callq	_ZNSt6vectorIdSaIdEED2Ev
	jmp	.LBB6_313
.LBB6_300:                              #   in Loop: Header=BB6_5 Depth=2
	movsd	-5384(%rbp), %xmm0              # xmm0 = mem[0],zero
.Ltmp486:
	movq	_ZSt4cout@GOTPCREL(%rip), %rdi
	callq	_ZNSolsEd@PLT
.Ltmp487:
	movq	%rax, -6040(%rbp)               # 8-byte Spill
	jmp	.LBB6_301
.LBB6_301:                              #   in Loop: Header=BB6_5 Depth=2
.Ltmp488:
	movq	-6040(%rbp), %rdi               # 8-byte Reload
	movq	_ZSt4endlIcSt11char_traitsIcEERSt13basic_ostreamIT_T0_ES6_@GOTPCREL(%rip), %rsi
	callq	_ZNSolsEPFRSoS_E@PLT
.Ltmp489:
	jmp	.LBB6_302
.LBB6_302:                              #   in Loop: Header=BB6_5 Depth=2
	movsd	-5384(%rbp), %xmm0              # xmm0 = mem[0],zero
	movsd	%xmm0, -6064(%rbp)              # 8-byte Spill
	leaq	-5336(%rbp), %rdi
	movq	%rdi, -6056(%rbp)               # 8-byte Spill
	callq	_ZNKSt6vectorIdSaIdEE4sizeEv
	movsd	-6064(%rbp), %xmm0              # 8-byte Reload
                                        # xmm0 = mem[0],zero
	movq	-6056(%rbp), %rdi               # 8-byte Reload
	movq	%rax, %xmm1
	movaps	.LCPI6_2(%rip), %xmm2           # xmm2 = [1127219200,1160773632,0,0]
	punpckldq	%xmm2, %xmm1            # xmm1 = xmm1[0],xmm2[0],xmm1[1],xmm2[1]
	movapd	.LCPI6_3(%rip), %xmm2           # xmm2 = [4.503599627370496E+15,1.9342813113834067E+25]
	subpd	%xmm2, %xmm1
	movaps	%xmm1, %xmm2
	unpckhpd	%xmm1, %xmm1                    # xmm1 = xmm1[1,1]
	addsd	%xmm2, %xmm1
	divsd	%xmm1, %xmm0
	movsd	%xmm0, -5392(%rbp)
	callq	_ZNKSt6vectorIdSaIdEE4sizeEv
	movq	%rax, %rsi
.Ltmp490:
	movq	_ZSt4cout@GOTPCREL(%rip), %rdi
	callq	_ZNSolsEm@PLT
.Ltmp491:
	movq	%rax, -6048(%rbp)               # 8-byte Spill
	jmp	.LBB6_303
.LBB6_303:                              #   in Loop: Header=BB6_5 Depth=2
.Ltmp492:
	movq	-6048(%rbp), %rdi               # 8-byte Reload
	movq	_ZSt4endlIcSt11char_traitsIcEERSt13basic_ostreamIT_T0_ES6_@GOTPCREL(%rip), %rsi
	callq	_ZNSolsEPFRSoS_E@PLT
.Ltmp493:
	jmp	.LBB6_304
.LBB6_304:                              #   in Loop: Header=BB6_5 Depth=2
	movsd	-5392(%rbp), %xmm0              # xmm0 = mem[0],zero
.Ltmp494:
	movq	_ZSt4cout@GOTPCREL(%rip), %rdi
	callq	_ZNSolsEd@PLT
.Ltmp495:
	movq	%rax, -6072(%rbp)               # 8-byte Spill
	jmp	.LBB6_305
.LBB6_305:                              #   in Loop: Header=BB6_5 Depth=2
.Ltmp496:
	movq	-6072(%rbp), %rdi               # 8-byte Reload
	movq	_ZSt4endlIcSt11char_traitsIcEERSt13basic_ostreamIT_T0_ES6_@GOTPCREL(%rip), %rsi
	callq	_ZNSolsEPFRSoS_E@PLT
.Ltmp497:
	jmp	.LBB6_306
.LBB6_306:                              #   in Loop: Header=BB6_5 Depth=2
	movl	-596(%rbp), %esi
.Ltmp498:
	leaq	-568(%rbp), %rdi
	callq	_ZNSolsEi@PLT
.Ltmp499:
	movq	%rax, -6080(%rbp)               # 8-byte Spill
	jmp	.LBB6_307
.LBB6_307:                              #   in Loop: Header=BB6_5 Depth=2
.Ltmp500:
	movq	-6080(%rbp), %rdi               # 8-byte Reload
	leaq	.L.str.20(%rip), %rsi
	callq	_ZStlsISt11char_traitsIcEERSt13basic_ostreamIcT_ES5_PKc@PLT
.Ltmp501:
	movq	%rax, -6088(%rbp)               # 8-byte Spill
	jmp	.LBB6_308
.LBB6_308:                              #   in Loop: Header=BB6_5 Depth=2
	movq	-6088(%rbp), %rdi               # 8-byte Reload
	movsd	-5392(%rbp), %xmm0              # xmm0 = mem[0],zero
.Ltmp502:
	callq	_ZNSolsEd@PLT
.Ltmp503:
	movq	%rax, -6096(%rbp)               # 8-byte Spill
	jmp	.LBB6_309
.LBB6_309:                              #   in Loop: Header=BB6_5 Depth=2
.Ltmp504:
	movq	-6096(%rbp), %rdi               # 8-byte Reload
	movq	_ZSt4endlIcSt11char_traitsIcEERSt13basic_ostreamIT_T0_ES6_@GOTPCREL(%rip), %rsi
	callq	_ZNSolsEPFRSoS_E@PLT
.Ltmp505:
	jmp	.LBB6_310
.LBB6_310:                              #   in Loop: Header=BB6_5 Depth=2
	movsd	-576(%rbp), %xmm0               # xmm0 = mem[0],zero
	addsd	-5392(%rbp), %xmm0
	movsd	%xmm0, -576(%rbp)
.LBB6_311:                              #   in Loop: Header=BB6_5 Depth=2
	leaq	-5336(%rbp), %rdi
	callq	_ZNSt6vectorIdSaIdEED2Ev
	leaq	-5264(%rbp), %rdi
	callq	_ZNSt6vectorIdSaIdEED2Ev
	leaq	-5224(%rbp), %rdi
	callq	_ZN4seal9PlaintextD2Ev
	leaq	-5096(%rbp), %rdi
	callq	_ZN4seal10CiphertextD2Ev
	leaq	-4840(%rbp), %rdi
	callq	_ZNSt9basic_iosIcSt11char_traitsIcEED1Ev@PLT
	leaq	-4296(%rbp), %rdi
	callq	_ZN4seal10CiphertextD2Ev
	leaq	-4096(%rbp), %rdi
	callq	_ZN4seal10CiphertextD2Ev
	leaq	-3920(%rbp), %rdi
	callq	_ZN4seal10CiphertextD2Ev
	leaq	-3752(%rbp), %rdi
	callq	_ZN4seal9PlaintextD2Ev
	leaq	-3576(%rbp), %rdi
	callq	_ZN4seal9PlaintextD2Ev
	leaq	-3448(%rbp), %rdi
	callq	_ZN4seal9PlaintextD2Ev
	leaq	-3320(%rbp), %rdi
	callq	_ZN4seal9PlaintextD2Ev
	leaq	-3160(%rbp), %rdi
	callq	_ZNSt6vectorIdSaIdEED2Ev
	leaq	-3128(%rbp), %rdi
	callq	_ZN4seal11CKKSEncoderD2Ev
	leaq	-2808(%rbp), %rdi
	callq	_ZN4seal9DecryptorD2Ev
	leaq	-2520(%rbp), %rdi
	callq	_ZN4seal9EvaluatorD2Ev
	leaq	-2296(%rbp), %rdi
	callq	_ZN4seal9EncryptorD2Ev
	leaq	-1872(%rbp), %rdi
	callq	_ZN4seal10GaloisKeysD2Ev
	leaq	-1800(%rbp), %rdi
	callq	_ZN4seal9RelinKeysD2Ev
	leaq	-1728(%rbp), %rdi
	callq	_ZN4seal9PublicKeyD2Ev
	leaq	-1592(%rbp), %rdi
	callq	_ZN4seal9SecretKeyD2Ev
	leaq	-1480(%rbp), %rdi
	callq	_ZN4seal12KeyGeneratorD2Ev
	leaq	-1040(%rbp), %rdi
	callq	_ZN4seal11SEALContextD2Ev
	leaq	-752(%rbp), %rdi
	callq	_ZN4seal20EncryptionParametersD2Ev
# %bb.312:                              #   in Loop: Header=BB6_5 Depth=2
	movl	-596(%rbp), %eax
	addl	$100, %eax
	movl	%eax, -596(%rbp)
	jmp	.LBB6_5
.LBB6_313:
	leaq	-5336(%rbp), %rdi
	callq	_ZNSt6vectorIdSaIdEED2Ev
.LBB6_314:
	leaq	-5264(%rbp), %rdi
	callq	_ZNSt6vectorIdSaIdEED2Ev
.LBB6_315:
	leaq	-5224(%rbp), %rdi
	callq	_ZN4seal9PlaintextD2Ev
.LBB6_316:
	leaq	-5096(%rbp), %rdi
	callq	_ZN4seal10CiphertextD2Ev
.LBB6_317:
	leaq	-4840(%rbp), %rdi
	callq	_ZNSt9basic_iosIcSt11char_traitsIcEED1Ev@PLT
.LBB6_318:
	leaq	-4296(%rbp), %rdi
	callq	_ZN4seal10CiphertextD2Ev
.LBB6_319:
	leaq	-4096(%rbp), %rdi
	callq	_ZN4seal10CiphertextD2Ev
.LBB6_320:
	leaq	-3920(%rbp), %rdi
	callq	_ZN4seal10CiphertextD2Ev
.LBB6_321:
	leaq	-3752(%rbp), %rdi
	callq	_ZN4seal9PlaintextD2Ev
.LBB6_322:
	leaq	-3576(%rbp), %rdi
	callq	_ZN4seal9PlaintextD2Ev
.LBB6_323:
	leaq	-3448(%rbp), %rdi
	callq	_ZN4seal9PlaintextD2Ev
.LBB6_324:
	leaq	-3320(%rbp), %rdi
	callq	_ZN4seal9PlaintextD2Ev
.LBB6_325:
	leaq	-3160(%rbp), %rdi
	callq	_ZNSt6vectorIdSaIdEED2Ev
.LBB6_326:
	leaq	-3128(%rbp), %rdi
	callq	_ZN4seal11CKKSEncoderD2Ev
.LBB6_327:
	leaq	-2808(%rbp), %rdi
	callq	_ZN4seal9DecryptorD2Ev
.LBB6_328:
	leaq	-2520(%rbp), %rdi
	callq	_ZN4seal9EvaluatorD2Ev
.LBB6_329:
	leaq	-2296(%rbp), %rdi
	callq	_ZN4seal9EncryptorD2Ev
.LBB6_330:
	leaq	-1872(%rbp), %rdi
	callq	_ZN4seal10GaloisKeysD2Ev
.LBB6_331:
	leaq	-1800(%rbp), %rdi
	callq	_ZN4seal9RelinKeysD2Ev
.LBB6_332:
	leaq	-1728(%rbp), %rdi
	callq	_ZN4seal9PublicKeyD2Ev
.LBB6_333:
	leaq	-1592(%rbp), %rdi
	callq	_ZN4seal9SecretKeyD2Ev
.LBB6_334:
	leaq	-1480(%rbp), %rdi
	callq	_ZN4seal12KeyGeneratorD2Ev
.LBB6_335:
	leaq	-1040(%rbp), %rdi
	callq	_ZN4seal11SEALContextD2Ev
.LBB6_336:
	leaq	-752(%rbp), %rdi
	callq	_ZN4seal20EncryptionParametersD2Ev
	jmp	.LBB6_340
.LBB6_337:                              #   in Loop: Header=BB6_3 Depth=1
	jmp	.LBB6_338
.LBB6_338:                              #   in Loop: Header=BB6_3 Depth=1
	movl	-580(%rbp), %eax
	addl	$1, %eax
	movl	%eax, -580(%rbp)
	jmp	.LBB6_3
.LBB6_339:
	leaq	-568(%rbp), %rdi
	callq	_ZNSt14basic_ofstreamIcSt11char_traitsIcEED1Ev@PLT
	addq	$6128, %rsp                     # imm = 0x17F0
	popq	%rbp
	.cfi_def_cfa %rsp, 8
	retq
.LBB6_340:
	.cfi_def_cfa %rbp, 16
	leaq	-568(%rbp), %rdi
	callq	_ZNSt14basic_ofstreamIcSt11char_traitsIcEED1Ev@PLT
.LBB6_341:
	movq	-48(%rbp), %rdi
	callq	_Unwind_Resume@PLT
.Lfunc_end6:
	.size	_Z19example_ckks_basicsv, .Lfunc_end6-_Z19example_ckks_basicsv
	.cfi_endproc
	.section	.gcc_except_table,"a",@progbits
	.p2align	2
GCC_except_table6:
.Lexception3:
	.byte	255                             # @LPStart Encoding = omit
	.byte	255                             # @TType Encoding = omit
	.byte	1                               # Call site Encoding = uleb128
	.uleb128 .Lcst_end3-.Lcst_begin3
.Lcst_begin3:
	.uleb128 .Ltmp23-.Lfunc_begin3          # >> Call Site 1 <<
	.uleb128 .Ltmp24-.Ltmp23                #   Call between .Ltmp23 and .Ltmp24
	.uleb128 .Ltmp25-.Lfunc_begin3          #     jumps to .Ltmp25
	.byte	0                               #   On action: cleanup
	.uleb128 .Ltmp26-.Lfunc_begin3          # >> Call Site 2 <<
	.uleb128 .Ltmp27-.Ltmp26                #   Call between .Ltmp26 and .Ltmp27
	.uleb128 .Ltmp28-.Lfunc_begin3          #     jumps to .Ltmp28
	.byte	0                               #   On action: cleanup
	.uleb128 .Ltmp27-.Lfunc_begin3          # >> Call Site 3 <<
	.uleb128 .Ltmp29-.Ltmp27                #   Call between .Ltmp27 and .Ltmp29
	.byte	0                               #     has no landing pad
	.byte	0                               #   On action: cleanup
	.uleb128 .Ltmp29-.Lfunc_begin3          # >> Call Site 4 <<
	.uleb128 .Ltmp30-.Ltmp29                #   Call between .Ltmp29 and .Ltmp30
	.uleb128 .Ltmp31-.Lfunc_begin3          #     jumps to .Ltmp31
	.byte	0                               #   On action: cleanup
	.uleb128 .Ltmp32-.Lfunc_begin3          # >> Call Site 5 <<
	.uleb128 .Ltmp33-.Ltmp32                #   Call between .Ltmp32 and .Ltmp33
	.uleb128 .Ltmp47-.Lfunc_begin3          #     jumps to .Ltmp47
	.byte	0                               #   On action: cleanup
	.uleb128 .Ltmp34-.Lfunc_begin3          # >> Call Site 6 <<
	.uleb128 .Ltmp35-.Ltmp34                #   Call between .Ltmp34 and .Ltmp35
	.uleb128 .Ltmp36-.Lfunc_begin3          #     jumps to .Ltmp36
	.byte	0                               #   On action: cleanup
	.uleb128 .Ltmp37-.Lfunc_begin3          # >> Call Site 7 <<
	.uleb128 .Ltmp38-.Ltmp37                #   Call between .Ltmp37 and .Ltmp38
	.uleb128 .Ltmp39-.Lfunc_begin3          #     jumps to .Ltmp39
	.byte	0                               #   On action: cleanup
	.uleb128 .Ltmp40-.Lfunc_begin3          # >> Call Site 8 <<
	.uleb128 .Ltmp41-.Ltmp40                #   Call between .Ltmp40 and .Ltmp41
	.uleb128 .Ltmp42-.Lfunc_begin3          #     jumps to .Ltmp42
	.byte	0                               #   On action: cleanup
	.uleb128 .Ltmp43-.Lfunc_begin3          # >> Call Site 9 <<
	.uleb128 .Ltmp46-.Ltmp43                #   Call between .Ltmp43 and .Ltmp46
	.uleb128 .Ltmp47-.Lfunc_begin3          #     jumps to .Ltmp47
	.byte	0                               #   On action: cleanup
	.uleb128 .Ltmp48-.Lfunc_begin3          # >> Call Site 10 <<
	.uleb128 .Ltmp57-.Ltmp48                #   Call between .Ltmp48 and .Ltmp57
	.uleb128 .Ltmp524-.Lfunc_begin3         #     jumps to .Ltmp524
	.byte	0                               #   On action: cleanup
	.uleb128 .Ltmp58-.Lfunc_begin3          # >> Call Site 11 <<
	.uleb128 .Ltmp61-.Ltmp58                #   Call between .Ltmp58 and .Ltmp61
	.uleb128 .Ltmp62-.Lfunc_begin3          #     jumps to .Ltmp62
	.byte	0                               #   On action: cleanup
	.uleb128 .Ltmp63-.Lfunc_begin3          # >> Call Site 12 <<
	.uleb128 .Ltmp64-.Ltmp63                #   Call between .Ltmp63 and .Ltmp64
	.uleb128 .Ltmp65-.Lfunc_begin3          #     jumps to .Ltmp65
	.byte	0                               #   On action: cleanup
	.uleb128 .Ltmp66-.Lfunc_begin3          # >> Call Site 13 <<
	.uleb128 .Ltmp69-.Ltmp66                #   Call between .Ltmp66 and .Ltmp69
	.uleb128 .Ltmp70-.Lfunc_begin3          #     jumps to .Ltmp70
	.byte	0                               #   On action: cleanup
	.uleb128 .Ltmp71-.Lfunc_begin3          # >> Call Site 14 <<
	.uleb128 .Ltmp74-.Ltmp71                #   Call between .Ltmp71 and .Ltmp74
	.uleb128 .Ltmp75-.Lfunc_begin3          #     jumps to .Ltmp75
	.byte	0                               #   On action: cleanup
	.uleb128 .Ltmp76-.Lfunc_begin3          # >> Call Site 15 <<
	.uleb128 .Ltmp79-.Ltmp76                #   Call between .Ltmp76 and .Ltmp79
	.uleb128 .Ltmp80-.Lfunc_begin3          #     jumps to .Ltmp80
	.byte	0                               #   On action: cleanup
	.uleb128 .Ltmp81-.Lfunc_begin3          # >> Call Site 16 <<
	.uleb128 .Ltmp82-.Ltmp81                #   Call between .Ltmp81 and .Ltmp82
	.uleb128 .Ltmp83-.Lfunc_begin3          #     jumps to .Ltmp83
	.byte	0                               #   On action: cleanup
	.uleb128 .Ltmp84-.Lfunc_begin3          # >> Call Site 17 <<
	.uleb128 .Ltmp85-.Ltmp84                #   Call between .Ltmp84 and .Ltmp85
	.uleb128 .Ltmp86-.Lfunc_begin3          #     jumps to .Ltmp86
	.byte	0                               #   On action: cleanup
	.uleb128 .Ltmp87-.Lfunc_begin3          # >> Call Site 18 <<
	.uleb128 .Ltmp88-.Ltmp87                #   Call between .Ltmp87 and .Ltmp88
	.uleb128 .Ltmp89-.Lfunc_begin3          #     jumps to .Ltmp89
	.byte	0                               #   On action: cleanup
	.uleb128 .Ltmp90-.Lfunc_begin3          # >> Call Site 19 <<
	.uleb128 .Ltmp95-.Ltmp90                #   Call between .Ltmp90 and .Ltmp95
	.uleb128 .Ltmp96-.Lfunc_begin3          #     jumps to .Ltmp96
	.byte	0                               #   On action: cleanup
	.uleb128 .Ltmp97-.Lfunc_begin3          # >> Call Site 20 <<
	.uleb128 .Ltmp104-.Ltmp97               #   Call between .Ltmp97 and .Ltmp104
	.uleb128 .Ltmp519-.Lfunc_begin3         #     jumps to .Ltmp519
	.byte	0                               #   On action: cleanup
	.uleb128 .Ltmp105-.Lfunc_begin3         # >> Call Site 21 <<
	.uleb128 .Ltmp106-.Ltmp105              #   Call between .Ltmp105 and .Ltmp106
	.uleb128 .Ltmp107-.Lfunc_begin3         #     jumps to .Ltmp107
	.byte	0                               #   On action: cleanup
	.uleb128 .Ltmp108-.Lfunc_begin3         # >> Call Site 22 <<
	.uleb128 .Ltmp113-.Ltmp108              #   Call between .Ltmp108 and .Ltmp113
	.uleb128 .Ltmp519-.Lfunc_begin3         #     jumps to .Ltmp519
	.byte	0                               #   On action: cleanup
	.uleb128 .Ltmp114-.Lfunc_begin3         # >> Call Site 23 <<
	.uleb128 .Ltmp115-.Ltmp114              #   Call between .Ltmp114 and .Ltmp115
	.uleb128 .Ltmp116-.Lfunc_begin3         #     jumps to .Ltmp116
	.byte	0                               #   On action: cleanup
	.uleb128 .Ltmp117-.Lfunc_begin3         # >> Call Site 24 <<
	.uleb128 .Ltmp118-.Ltmp117              #   Call between .Ltmp117 and .Ltmp118
	.uleb128 .Ltmp119-.Lfunc_begin3         #     jumps to .Ltmp119
	.byte	0                               #   On action: cleanup
	.uleb128 .Ltmp120-.Lfunc_begin3         # >> Call Site 25 <<
	.uleb128 .Ltmp121-.Ltmp120              #   Call between .Ltmp120 and .Ltmp121
	.uleb128 .Ltmp122-.Lfunc_begin3         #     jumps to .Ltmp122
	.byte	0                               #   On action: cleanup
	.uleb128 .Ltmp123-.Lfunc_begin3         # >> Call Site 26 <<
	.uleb128 .Ltmp124-.Ltmp123              #   Call between .Ltmp123 and .Ltmp124
	.uleb128 .Ltmp125-.Lfunc_begin3         #     jumps to .Ltmp125
	.byte	0                               #   On action: cleanup
	.uleb128 .Ltmp126-.Lfunc_begin3         # >> Call Site 27 <<
	.uleb128 .Ltmp127-.Ltmp126              #   Call between .Ltmp126 and .Ltmp127
	.uleb128 .Ltmp128-.Lfunc_begin3         #     jumps to .Ltmp128
	.byte	0                               #   On action: cleanup
	.uleb128 .Ltmp129-.Lfunc_begin3         # >> Call Site 28 <<
	.uleb128 .Ltmp130-.Ltmp129              #   Call between .Ltmp129 and .Ltmp130
	.uleb128 .Ltmp146-.Lfunc_begin3         #     jumps to .Ltmp146
	.byte	0                               #   On action: cleanup
	.uleb128 .Ltmp131-.Lfunc_begin3         # >> Call Site 29 <<
	.uleb128 .Ltmp132-.Ltmp131              #   Call between .Ltmp131 and .Ltmp132
	.uleb128 .Ltmp133-.Lfunc_begin3         #     jumps to .Ltmp133
	.byte	0                               #   On action: cleanup
	.uleb128 .Ltmp134-.Lfunc_begin3         # >> Call Site 30 <<
	.uleb128 .Ltmp135-.Ltmp134              #   Call between .Ltmp134 and .Ltmp135
	.uleb128 .Ltmp146-.Lfunc_begin3         #     jumps to .Ltmp146
	.byte	0                               #   On action: cleanup
	.uleb128 .Ltmp136-.Lfunc_begin3         # >> Call Site 31 <<
	.uleb128 .Ltmp137-.Ltmp136              #   Call between .Ltmp136 and .Ltmp137
	.uleb128 .Ltmp138-.Lfunc_begin3         #     jumps to .Ltmp138
	.byte	0                               #   On action: cleanup
	.uleb128 .Ltmp139-.Lfunc_begin3         # >> Call Site 32 <<
	.uleb128 .Ltmp140-.Ltmp139              #   Call between .Ltmp139 and .Ltmp140
	.uleb128 .Ltmp146-.Lfunc_begin3         #     jumps to .Ltmp146
	.byte	0                               #   On action: cleanup
	.uleb128 .Ltmp141-.Lfunc_begin3         # >> Call Site 33 <<
	.uleb128 .Ltmp142-.Ltmp141              #   Call between .Ltmp141 and .Ltmp142
	.uleb128 .Ltmp143-.Lfunc_begin3         #     jumps to .Ltmp143
	.byte	0                               #   On action: cleanup
	.uleb128 .Ltmp144-.Lfunc_begin3         # >> Call Site 34 <<
	.uleb128 .Ltmp145-.Ltmp144              #   Call between .Ltmp144 and .Ltmp145
	.uleb128 .Ltmp146-.Lfunc_begin3         #     jumps to .Ltmp146
	.byte	0                               #   On action: cleanup
	.uleb128 .Ltmp147-.Lfunc_begin3         # >> Call Site 35 <<
	.uleb128 .Ltmp148-.Ltmp147              #   Call between .Ltmp147 and .Ltmp148
	.uleb128 .Ltmp149-.Lfunc_begin3         #     jumps to .Ltmp149
	.byte	0                               #   On action: cleanup
	.uleb128 .Ltmp150-.Lfunc_begin3         # >> Call Site 36 <<
	.uleb128 .Ltmp157-.Ltmp150              #   Call between .Ltmp150 and .Ltmp157
	.uleb128 .Ltmp163-.Lfunc_begin3         #     jumps to .Ltmp163
	.byte	0                               #   On action: cleanup
	.uleb128 .Ltmp158-.Lfunc_begin3         # >> Call Site 37 <<
	.uleb128 .Ltmp159-.Ltmp158              #   Call between .Ltmp158 and .Ltmp159
	.uleb128 .Ltmp160-.Lfunc_begin3         #     jumps to .Ltmp160
	.byte	0                               #   On action: cleanup
	.uleb128 .Ltmp161-.Lfunc_begin3         # >> Call Site 38 <<
	.uleb128 .Ltmp162-.Ltmp161              #   Call between .Ltmp161 and .Ltmp162
	.uleb128 .Ltmp163-.Lfunc_begin3         #     jumps to .Ltmp163
	.byte	0                               #   On action: cleanup
	.uleb128 .Ltmp164-.Lfunc_begin3         # >> Call Site 39 <<
	.uleb128 .Ltmp165-.Ltmp164              #   Call between .Ltmp164 and .Ltmp165
	.uleb128 .Ltmp166-.Lfunc_begin3         #     jumps to .Ltmp166
	.byte	0                               #   On action: cleanup
	.uleb128 .Ltmp167-.Lfunc_begin3         # >> Call Site 40 <<
	.uleb128 .Ltmp168-.Ltmp167              #   Call between .Ltmp167 and .Ltmp168
	.uleb128 .Ltmp174-.Lfunc_begin3         #     jumps to .Ltmp174
	.byte	0                               #   On action: cleanup
	.uleb128 .Ltmp169-.Lfunc_begin3         # >> Call Site 41 <<
	.uleb128 .Ltmp170-.Ltmp169              #   Call between .Ltmp169 and .Ltmp170
	.uleb128 .Ltmp171-.Lfunc_begin3         #     jumps to .Ltmp171
	.byte	0                               #   On action: cleanup
	.uleb128 .Ltmp172-.Lfunc_begin3         # >> Call Site 42 <<
	.uleb128 .Ltmp173-.Ltmp172              #   Call between .Ltmp172 and .Ltmp173
	.uleb128 .Ltmp174-.Lfunc_begin3         #     jumps to .Ltmp174
	.byte	0                               #   On action: cleanup
	.uleb128 .Ltmp175-.Lfunc_begin3         # >> Call Site 43 <<
	.uleb128 .Ltmp176-.Ltmp175              #   Call between .Ltmp175 and .Ltmp176
	.uleb128 .Ltmp177-.Lfunc_begin3         #     jumps to .Ltmp177
	.byte	0                               #   On action: cleanup
	.uleb128 .Ltmp178-.Lfunc_begin3         # >> Call Site 44 <<
	.uleb128 .Ltmp185-.Ltmp178              #   Call between .Ltmp178 and .Ltmp185
	.uleb128 .Ltmp229-.Lfunc_begin3         #     jumps to .Ltmp229
	.byte	0                               #   On action: cleanup
	.uleb128 .Ltmp186-.Lfunc_begin3         # >> Call Site 45 <<
	.uleb128 .Ltmp187-.Ltmp186              #   Call between .Ltmp186 and .Ltmp187
	.uleb128 .Ltmp188-.Lfunc_begin3         #     jumps to .Ltmp188
	.byte	0                               #   On action: cleanup
	.uleb128 .Ltmp189-.Lfunc_begin3         # >> Call Site 46 <<
	.uleb128 .Ltmp190-.Ltmp189              #   Call between .Ltmp189 and .Ltmp190
	.uleb128 .Ltmp229-.Lfunc_begin3         #     jumps to .Ltmp229
	.byte	0                               #   On action: cleanup
	.uleb128 .Ltmp191-.Lfunc_begin3         # >> Call Site 47 <<
	.uleb128 .Ltmp192-.Ltmp191              #   Call between .Ltmp191 and .Ltmp192
	.uleb128 .Ltmp193-.Lfunc_begin3         #     jumps to .Ltmp193
	.byte	0                               #   On action: cleanup
	.uleb128 .Ltmp194-.Lfunc_begin3         # >> Call Site 48 <<
	.uleb128 .Ltmp209-.Ltmp194              #   Call between .Ltmp194 and .Ltmp209
	.uleb128 .Ltmp229-.Lfunc_begin3         #     jumps to .Ltmp229
	.byte	0                               #   On action: cleanup
	.uleb128 .Ltmp210-.Lfunc_begin3         # >> Call Site 49 <<
	.uleb128 .Ltmp211-.Ltmp210              #   Call between .Ltmp210 and .Ltmp211
	.uleb128 .Ltmp212-.Lfunc_begin3         #     jumps to .Ltmp212
	.byte	0                               #   On action: cleanup
	.uleb128 .Ltmp213-.Lfunc_begin3         # >> Call Site 50 <<
	.uleb128 .Ltmp228-.Ltmp213              #   Call between .Ltmp213 and .Ltmp228
	.uleb128 .Ltmp229-.Lfunc_begin3         #     jumps to .Ltmp229
	.byte	0                               #   On action: cleanup
	.uleb128 .Ltmp230-.Lfunc_begin3         # >> Call Site 51 <<
	.uleb128 .Ltmp231-.Ltmp230              #   Call between .Ltmp230 and .Ltmp231
	.uleb128 .Ltmp232-.Lfunc_begin3         #     jumps to .Ltmp232
	.byte	0                               #   On action: cleanup
	.uleb128 .Ltmp233-.Lfunc_begin3         # >> Call Site 52 <<
	.uleb128 .Ltmp234-.Ltmp233              #   Call between .Ltmp233 and .Ltmp234
	.uleb128 .Ltmp516-.Lfunc_begin3         #     jumps to .Ltmp516
	.byte	0                               #   On action: cleanup
	.uleb128 .Ltmp235-.Lfunc_begin3         # >> Call Site 53 <<
	.uleb128 .Ltmp236-.Ltmp235              #   Call between .Ltmp235 and .Ltmp236
	.uleb128 .Ltmp237-.Lfunc_begin3         #     jumps to .Ltmp237
	.byte	0                               #   On action: cleanup
	.uleb128 .Ltmp238-.Lfunc_begin3         # >> Call Site 54 <<
	.uleb128 .Ltmp247-.Ltmp238              #   Call between .Ltmp238 and .Ltmp247
	.uleb128 .Ltmp516-.Lfunc_begin3         #     jumps to .Ltmp516
	.byte	0                               #   On action: cleanup
	.uleb128 .Ltmp248-.Lfunc_begin3         # >> Call Site 55 <<
	.uleb128 .Ltmp249-.Ltmp248              #   Call between .Ltmp248 and .Ltmp249
	.uleb128 .Ltmp250-.Lfunc_begin3         #     jumps to .Ltmp250
	.byte	0                               #   On action: cleanup
	.uleb128 .Ltmp251-.Lfunc_begin3         # >> Call Site 56 <<
	.uleb128 .Ltmp266-.Ltmp251              #   Call between .Ltmp251 and .Ltmp266
	.uleb128 .Ltmp516-.Lfunc_begin3         #     jumps to .Ltmp516
	.byte	0                               #   On action: cleanup
	.uleb128 .Ltmp267-.Lfunc_begin3         # >> Call Site 57 <<
	.uleb128 .Ltmp268-.Ltmp267              #   Call between .Ltmp267 and .Ltmp268
	.uleb128 .Ltmp269-.Lfunc_begin3         #     jumps to .Ltmp269
	.byte	0                               #   On action: cleanup
	.uleb128 .Ltmp270-.Lfunc_begin3         # >> Call Site 58 <<
	.uleb128 .Ltmp271-.Ltmp270              #   Call between .Ltmp270 and .Ltmp271
	.uleb128 .Ltmp516-.Lfunc_begin3         #     jumps to .Ltmp516
	.byte	0                               #   On action: cleanup
	.uleb128 .Ltmp272-.Lfunc_begin3         # >> Call Site 59 <<
	.uleb128 .Ltmp273-.Ltmp272              #   Call between .Ltmp272 and .Ltmp273
	.uleb128 .Ltmp274-.Lfunc_begin3         #     jumps to .Ltmp274
	.byte	0                               #   On action: cleanup
	.uleb128 .Ltmp275-.Lfunc_begin3         # >> Call Site 60 <<
	.uleb128 .Ltmp290-.Ltmp275              #   Call between .Ltmp275 and .Ltmp290
	.uleb128 .Ltmp516-.Lfunc_begin3         #     jumps to .Ltmp516
	.byte	0                               #   On action: cleanup
	.uleb128 .Ltmp291-.Lfunc_begin3         # >> Call Site 61 <<
	.uleb128 .Ltmp292-.Ltmp291              #   Call between .Ltmp291 and .Ltmp292
	.uleb128 .Ltmp293-.Lfunc_begin3         #     jumps to .Ltmp293
	.byte	0                               #   On action: cleanup
	.uleb128 .Ltmp294-.Lfunc_begin3         # >> Call Site 62 <<
	.uleb128 .Ltmp309-.Ltmp294              #   Call between .Ltmp294 and .Ltmp309
	.uleb128 .Ltmp516-.Lfunc_begin3         #     jumps to .Ltmp516
	.byte	0                               #   On action: cleanup
	.uleb128 .Ltmp310-.Lfunc_begin3         # >> Call Site 63 <<
	.uleb128 .Ltmp311-.Ltmp310              #   Call between .Ltmp310 and .Ltmp311
	.uleb128 .Ltmp312-.Lfunc_begin3         #     jumps to .Ltmp312
	.byte	0                               #   On action: cleanup
	.uleb128 .Ltmp313-.Lfunc_begin3         # >> Call Site 64 <<
	.uleb128 .Ltmp322-.Ltmp313              #   Call between .Ltmp313 and .Ltmp322
	.uleb128 .Ltmp516-.Lfunc_begin3         #     jumps to .Ltmp516
	.byte	0                               #   On action: cleanup
	.uleb128 .Ltmp323-.Lfunc_begin3         # >> Call Site 65 <<
	.uleb128 .Ltmp324-.Ltmp323              #   Call between .Ltmp323 and .Ltmp324
	.uleb128 .Ltmp325-.Lfunc_begin3         #     jumps to .Ltmp325
	.byte	0                               #   On action: cleanup
	.uleb128 .Ltmp326-.Lfunc_begin3         # >> Call Site 66 <<
	.uleb128 .Ltmp345-.Ltmp326              #   Call between .Ltmp326 and .Ltmp345
	.uleb128 .Ltmp516-.Lfunc_begin3         #     jumps to .Ltmp516
	.byte	0                               #   On action: cleanup
	.uleb128 .Ltmp346-.Lfunc_begin3         # >> Call Site 67 <<
	.uleb128 .Ltmp349-.Ltmp346              #   Call between .Ltmp346 and .Ltmp349
	.uleb128 .Ltmp350-.Lfunc_begin3         #     jumps to .Ltmp350
	.byte	0                               #   On action: cleanup
	.uleb128 .Ltmp351-.Lfunc_begin3         # >> Call Site 68 <<
	.uleb128 .Ltmp354-.Ltmp351              #   Call between .Ltmp351 and .Ltmp354
	.uleb128 .Ltmp516-.Lfunc_begin3         #     jumps to .Ltmp516
	.byte	0                               #   On action: cleanup
	.uleb128 .Ltmp355-.Lfunc_begin3         # >> Call Site 69 <<
	.uleb128 .Ltmp358-.Ltmp355              #   Call between .Ltmp355 and .Ltmp358
	.uleb128 .Ltmp359-.Lfunc_begin3         #     jumps to .Ltmp359
	.byte	0                               #   On action: cleanup
	.uleb128 .Ltmp360-.Lfunc_begin3         # >> Call Site 70 <<
	.uleb128 .Ltmp363-.Ltmp360              #   Call between .Ltmp360 and .Ltmp363
	.uleb128 .Ltmp516-.Lfunc_begin3         #     jumps to .Ltmp516
	.byte	0                               #   On action: cleanup
	.uleb128 .Ltmp364-.Lfunc_begin3         # >> Call Site 71 <<
	.uleb128 .Ltmp367-.Ltmp364              #   Call between .Ltmp364 and .Ltmp367
	.uleb128 .Ltmp368-.Lfunc_begin3         #     jumps to .Ltmp368
	.byte	0                               #   On action: cleanup
	.uleb128 .Ltmp369-.Lfunc_begin3         # >> Call Site 72 <<
	.uleb128 .Ltmp378-.Ltmp369              #   Call between .Ltmp369 and .Ltmp378
	.uleb128 .Ltmp516-.Lfunc_begin3         #     jumps to .Ltmp516
	.byte	0                               #   On action: cleanup
	.uleb128 .Ltmp379-.Lfunc_begin3         # >> Call Site 73 <<
	.uleb128 .Ltmp426-.Ltmp379              #   Call between .Ltmp379 and .Ltmp426
	.uleb128 .Ltmp440-.Lfunc_begin3         #     jumps to .Ltmp440
	.byte	0                               #   On action: cleanup
	.uleb128 .Ltmp427-.Lfunc_begin3         # >> Call Site 74 <<
	.uleb128 .Ltmp428-.Ltmp427              #   Call between .Ltmp427 and .Ltmp428
	.uleb128 .Ltmp429-.Lfunc_begin3         #     jumps to .Ltmp429
	.byte	0                               #   On action: cleanup
	.uleb128 .Ltmp430-.Lfunc_begin3         # >> Call Site 75 <<
	.uleb128 .Ltmp439-.Ltmp430              #   Call between .Ltmp430 and .Ltmp439
	.uleb128 .Ltmp440-.Lfunc_begin3         #     jumps to .Ltmp440
	.byte	0                               #   On action: cleanup
	.uleb128 .Ltmp441-.Lfunc_begin3         # >> Call Site 76 <<
	.uleb128 .Ltmp442-.Ltmp441              #   Call between .Ltmp441 and .Ltmp442
	.uleb128 .Ltmp443-.Lfunc_begin3         #     jumps to .Ltmp443
	.byte	0                               #   On action: cleanup
	.uleb128 .Ltmp444-.Lfunc_begin3         # >> Call Site 77 <<
	.uleb128 .Ltmp449-.Ltmp444              #   Call between .Ltmp444 and .Ltmp449
	.uleb128 .Ltmp450-.Lfunc_begin3         #     jumps to .Ltmp450
	.byte	0                               #   On action: cleanup
	.uleb128 .Ltmp451-.Lfunc_begin3         # >> Call Site 78 <<
	.uleb128 .Ltmp452-.Ltmp451              #   Call between .Ltmp451 and .Ltmp452
	.uleb128 .Ltmp453-.Lfunc_begin3         #     jumps to .Ltmp453
	.byte	0                               #   On action: cleanup
	.uleb128 .Ltmp454-.Lfunc_begin3         # >> Call Site 79 <<
	.uleb128 .Ltmp463-.Ltmp454              #   Call between .Ltmp454 and .Ltmp463
	.uleb128 .Ltmp464-.Lfunc_begin3         #     jumps to .Ltmp464
	.byte	0                               #   On action: cleanup
	.uleb128 .Ltmp509-.Lfunc_begin3         # >> Call Site 80 <<
	.uleb128 .Ltmp466-.Ltmp509              #   Call between .Ltmp509 and .Ltmp466
	.uleb128 .Ltmp511-.Lfunc_begin3         #     jumps to .Ltmp511
	.byte	0                               #   On action: cleanup
	.uleb128 .Ltmp467-.Lfunc_begin3         # >> Call Site 81 <<
	.uleb128 .Ltmp468-.Ltmp467              #   Call between .Ltmp467 and .Ltmp468
	.uleb128 .Ltmp469-.Lfunc_begin3         #     jumps to .Ltmp469
	.byte	0                               #   On action: cleanup
	.uleb128 .Ltmp470-.Lfunc_begin3         # >> Call Site 82 <<
	.uleb128 .Ltmp471-.Ltmp470              #   Call between .Ltmp470 and .Ltmp471
	.uleb128 .Ltmp511-.Lfunc_begin3         #     jumps to .Ltmp511
	.byte	0                               #   On action: cleanup
	.uleb128 .Ltmp472-.Lfunc_begin3         # >> Call Site 83 <<
	.uleb128 .Ltmp473-.Ltmp472              #   Call between .Ltmp472 and .Ltmp473
	.uleb128 .Ltmp508-.Lfunc_begin3         #     jumps to .Ltmp508
	.byte	0                               #   On action: cleanup
	.uleb128 .Ltmp474-.Lfunc_begin3         # >> Call Site 84 <<
	.uleb128 .Ltmp475-.Ltmp474              #   Call between .Ltmp474 and .Ltmp475
	.uleb128 .Ltmp476-.Lfunc_begin3         #     jumps to .Ltmp476
	.byte	0                               #   On action: cleanup
	.uleb128 .Ltmp477-.Lfunc_begin3         # >> Call Site 85 <<
	.uleb128 .Ltmp482-.Ltmp477              #   Call between .Ltmp477 and .Ltmp482
	.uleb128 .Ltmp508-.Lfunc_begin3         #     jumps to .Ltmp508
	.byte	0                               #   On action: cleanup
	.uleb128 .Ltmp483-.Lfunc_begin3         # >> Call Site 86 <<
	.uleb128 .Ltmp484-.Ltmp483              #   Call between .Ltmp483 and .Ltmp484
	.uleb128 .Ltmp485-.Lfunc_begin3         #     jumps to .Ltmp485
	.byte	0                               #   On action: cleanup
	.uleb128 .Ltmp506-.Lfunc_begin3         # >> Call Site 87 <<
	.uleb128 .Ltmp505-.Ltmp506              #   Call between .Ltmp506 and .Ltmp505
	.uleb128 .Ltmp508-.Lfunc_begin3         #     jumps to .Ltmp508
	.byte	0                               #   On action: cleanup
	.uleb128 .Ltmp505-.Lfunc_begin3         # >> Call Site 88 <<
	.uleb128 .Lfunc_end6-.Ltmp505           #   Call between .Ltmp505 and .Lfunc_end6
	.byte	0                               #     has no landing pad
	.byte	0                               #   On action: cleanup
.Lcst_end3:
	.p2align	2
                                        # -- End function
	.section	.text._Z20print_example_bannerNSt7__cxx1112basic_stringIcSt11char_traitsIcESaIcEEE,"axG",@progbits,_Z20print_example_bannerNSt7__cxx1112basic_stringIcSt11char_traitsIcESaIcEEE,comdat
	.weak	_Z20print_example_bannerNSt7__cxx1112basic_stringIcSt11char_traitsIcESaIcEEE # -- Begin function _Z20print_example_bannerNSt7__cxx1112basic_stringIcSt11char_traitsIcESaIcEEE
	.p2align	4, 0x90
	.type	_Z20print_example_bannerNSt7__cxx1112basic_stringIcSt11char_traitsIcESaIcEEE,@function
_Z20print_example_bannerNSt7__cxx1112basic_stringIcSt11char_traitsIcESaIcEEE: # @_Z20print_example_bannerNSt7__cxx1112basic_stringIcSt11char_traitsIcESaIcEEE
.Lfunc_begin4:
	.cfi_startproc
	.cfi_personality 155, DW.ref.__gxx_personality_v0
	.cfi_lsda 27, .Lexception4
# %bb.0:
	pushq	%rbp
	.cfi_def_cfa_offset 16
	.cfi_offset %rbp, -16
	movq	%rsp, %rbp
	.cfi_def_cfa_register %rbp
	subq	$432, %rsp                      # imm = 0x1B0
	movq	%rdi, -352(%rbp)                # 8-byte Spill
	callq	_ZNKSt7__cxx1112basic_stringIcSt11char_traitsIcESaIcEE5emptyEv@PLT
	testb	$1, %al
	jne	.LBB7_36
# %bb.1:
	movq	-352(%rbp), %rdi                # 8-byte Reload
	callq	_ZNKSt7__cxx1112basic_stringIcSt11char_traitsIcESaIcEE6lengthEv@PLT
	movq	%rax, -8(%rbp)
	movq	-8(%rbp), %rax
	addq	$20, %rax
	movq	%rax, -16(%rbp)
	movq	-16(%rbp), %rax
	addq	$-2, %rax
	movq	%rax, -368(%rbp)                # 8-byte Spill
	leaq	-120(%rbp), %rdi
	movq	%rdi, -360(%rbp)                # 8-byte Spill
	callq	_ZNSaIcEC1Ev@PLT
	movq	-368(%rbp), %rsi                # 8-byte Reload
	movq	-360(%rbp), %rcx                # 8-byte Reload
.Ltmp525:
	leaq	-112(%rbp), %rdi
	movl	$45, %edx
	callq	_ZNSt7__cxx1112basic_stringIcSt11char_traitsIcESaIcEEC2IS3_EEmcRKS3_
.Ltmp526:
	jmp	.LBB7_2
.LBB7_2:
.Ltmp528:
	leaq	.L.str.39(%rip), %rsi
	leaq	-80(%rbp), %rdi
	leaq	-112(%rbp), %rdx
	callq	_ZStplIcSt11char_traitsIcESaIcEENSt7__cxx1112basic_stringIT_T0_T1_EEPKS5_OS8_
.Ltmp529:
	jmp	.LBB7_3
.LBB7_3:
.Ltmp531:
	leaq	.L.str.39(%rip), %rdx
	leaq	-48(%rbp), %rdi
	leaq	-80(%rbp), %rsi
	callq	_ZStplIcSt11char_traitsIcESaIcEENSt7__cxx1112basic_stringIT_T0_T1_EEOS8_PKS5_
.Ltmp532:
	jmp	.LBB7_4
.LBB7_4:
	leaq	-80(%rbp), %rdi
	callq	_ZNSt7__cxx1112basic_stringIcSt11char_traitsIcESaIcEED1Ev@PLT
	leaq	-112(%rbp), %rdi
	callq	_ZNSt7__cxx1112basic_stringIcSt11char_traitsIcESaIcEED1Ev@PLT
	leaq	-120(%rbp), %rdi
	callq	_ZNSaIcED1Ev@PLT
	leaq	-304(%rbp), %rdi
	movq	%rdi, -376(%rbp)                # 8-byte Spill
	callq	_ZNSaIcEC1Ev@PLT
	movq	-376(%rbp), %rcx                # 8-byte Reload
.Ltmp534:
	leaq	-296(%rbp), %rdi
	movl	$9, %esi
	movl	$32, %edx
	callq	_ZNSt7__cxx1112basic_stringIcSt11char_traitsIcESaIcEEC2IS3_EEmcRKS3_
.Ltmp535:
	jmp	.LBB7_5
.LBB7_5:
.Ltmp537:
	leaq	.L.str.40(%rip), %rsi
	leaq	-264(%rbp), %rdi
	leaq	-296(%rbp), %rdx
	callq	_ZStplIcSt11char_traitsIcESaIcEENSt7__cxx1112basic_stringIT_T0_T1_EEPKS5_OS8_
.Ltmp538:
	jmp	.LBB7_6
.LBB7_6:
.Ltmp540:
	movq	-352(%rbp), %rdx                # 8-byte Reload
	leaq	-232(%rbp), %rdi
	leaq	-264(%rbp), %rsi
	callq	_ZStplIcSt11char_traitsIcESaIcEENSt7__cxx1112basic_stringIT_T0_T1_EEOS8_RKS8_
.Ltmp541:
	jmp	.LBB7_7
.LBB7_7:
	leaq	-344(%rbp), %rdi
	movq	%rdi, -384(%rbp)                # 8-byte Spill
	callq	_ZNSaIcEC1Ev@PLT
	movq	-384(%rbp), %rcx                # 8-byte Reload
.Ltmp543:
	leaq	-336(%rbp), %rdi
	movl	$9, %esi
	movl	$32, %edx
	callq	_ZNSt7__cxx1112basic_stringIcSt11char_traitsIcESaIcEEC2IS3_EEmcRKS3_
.Ltmp544:
	jmp	.LBB7_8
.LBB7_8:
.Ltmp546:
	leaq	-200(%rbp), %rdi
	leaq	-232(%rbp), %rsi
	leaq	-336(%rbp), %rdx
	callq	_ZStplIcSt11char_traitsIcESaIcEENSt7__cxx1112basic_stringIT_T0_T1_EEOS8_S9_
.Ltmp547:
	jmp	.LBB7_9
.LBB7_9:
.Ltmp549:
	leaq	.L.str.40(%rip), %rdx
	leaq	-168(%rbp), %rdi
	leaq	-200(%rbp), %rsi
	callq	_ZStplIcSt11char_traitsIcESaIcEENSt7__cxx1112basic_stringIT_T0_T1_EEOS8_PKS5_
.Ltmp550:
	jmp	.LBB7_10
.LBB7_10:
	leaq	-200(%rbp), %rdi
	callq	_ZNSt7__cxx1112basic_stringIcSt11char_traitsIcESaIcEED1Ev@PLT
	leaq	-336(%rbp), %rdi
	callq	_ZNSt7__cxx1112basic_stringIcSt11char_traitsIcESaIcEED1Ev@PLT
	leaq	-344(%rbp), %rdi
	callq	_ZNSaIcED1Ev@PLT
	leaq	-232(%rbp), %rdi
	callq	_ZNSt7__cxx1112basic_stringIcSt11char_traitsIcESaIcEED1Ev@PLT
	leaq	-264(%rbp), %rdi
	callq	_ZNSt7__cxx1112basic_stringIcSt11char_traitsIcESaIcEED1Ev@PLT
	leaq	-296(%rbp), %rdi
	callq	_ZNSt7__cxx1112basic_stringIcSt11char_traitsIcESaIcEED1Ev@PLT
	leaq	-304(%rbp), %rdi
	callq	_ZNSaIcED1Ev@PLT
.Ltmp552:
	movq	_ZSt4cout@GOTPCREL(%rip), %rdi
	movq	_ZSt4endlIcSt11char_traitsIcEERSt13basic_ostreamIT_T0_ES6_@GOTPCREL(%rip), %rsi
	callq	_ZNSolsEPFRSoS_E@PLT
.Ltmp553:
	movq	%rax, -392(%rbp)                # 8-byte Spill
	jmp	.LBB7_11
.LBB7_11:
.Ltmp554:
	movq	-392(%rbp), %rdi                # 8-byte Reload
	leaq	-48(%rbp), %rsi
	callq	_ZStlsIcSt11char_traitsIcESaIcEERSt13basic_ostreamIT_T0_ES7_RKNSt7__cxx1112basic_stringIS4_S5_T1_EE@PLT
.Ltmp555:
	movq	%rax, -400(%rbp)                # 8-byte Spill
	jmp	.LBB7_12
.LBB7_12:
.Ltmp556:
	movq	-400(%rbp), %rdi                # 8-byte Reload
	movq	_ZSt4endlIcSt11char_traitsIcEERSt13basic_ostreamIT_T0_ES6_@GOTPCREL(%rip), %rsi
	callq	_ZNSolsEPFRSoS_E@PLT
.Ltmp557:
	movq	%rax, -408(%rbp)                # 8-byte Spill
	jmp	.LBB7_13
.LBB7_13:
.Ltmp558:
	movq	-408(%rbp), %rdi                # 8-byte Reload
	leaq	-168(%rbp), %rsi
	callq	_ZStlsIcSt11char_traitsIcESaIcEERSt13basic_ostreamIT_T0_ES7_RKNSt7__cxx1112basic_stringIS4_S5_T1_EE@PLT
.Ltmp559:
	movq	%rax, -416(%rbp)                # 8-byte Spill
	jmp	.LBB7_14
.LBB7_14:
.Ltmp560:
	movq	-416(%rbp), %rdi                # 8-byte Reload
	movq	_ZSt4endlIcSt11char_traitsIcEERSt13basic_ostreamIT_T0_ES6_@GOTPCREL(%rip), %rsi
	callq	_ZNSolsEPFRSoS_E@PLT
.Ltmp561:
	movq	%rax, -424(%rbp)                # 8-byte Spill
	jmp	.LBB7_15
.LBB7_15:
.Ltmp562:
	movq	-424(%rbp), %rdi                # 8-byte Reload
	leaq	-48(%rbp), %rsi
	callq	_ZStlsIcSt11char_traitsIcESaIcEERSt13basic_ostreamIT_T0_ES7_RKNSt7__cxx1112basic_stringIS4_S5_T1_EE@PLT
.Ltmp563:
	movq	%rax, -432(%rbp)                # 8-byte Spill
	jmp	.LBB7_16
.LBB7_16:
.Ltmp564:
	movq	-432(%rbp), %rdi                # 8-byte Reload
	movq	_ZSt4endlIcSt11char_traitsIcEERSt13basic_ostreamIT_T0_ES6_@GOTPCREL(%rip), %rsi
	callq	_ZNSolsEPFRSoS_E@PLT
.Ltmp565:
	jmp	.LBB7_17
.LBB7_17:
	leaq	-168(%rbp), %rdi
	callq	_ZNSt7__cxx1112basic_stringIcSt11char_traitsIcESaIcEED1Ev@PLT
	leaq	-48(%rbp), %rdi
	callq	_ZNSt7__cxx1112basic_stringIcSt11char_traitsIcESaIcEED1Ev@PLT
	jmp	.LBB7_36
.LBB7_18:
.Ltmp527:
	movq	%rax, %rcx
	movl	%edx, %eax
	movq	%rcx, -128(%rbp)
	movl	%eax, -132(%rbp)
	jmp	.LBB7_22
.LBB7_19:
.Ltmp530:
	movq	%rax, %rcx
	movl	%edx, %eax
	movq	%rcx, -128(%rbp)
	movl	%eax, -132(%rbp)
	jmp	.LBB7_21
.LBB7_20:
.Ltmp533:
	movq	%rax, %rcx
	movl	%edx, %eax
	movq	%rcx, -128(%rbp)
	movl	%eax, -132(%rbp)
	leaq	-80(%rbp), %rdi
	callq	_ZNSt7__cxx1112basic_stringIcSt11char_traitsIcESaIcEED1Ev@PLT
.LBB7_21:
	leaq	-112(%rbp), %rdi
	callq	_ZNSt7__cxx1112basic_stringIcSt11char_traitsIcESaIcEED1Ev@PLT
.LBB7_22:
	leaq	-120(%rbp), %rdi
	callq	_ZNSaIcED1Ev@PLT
	jmp	.LBB7_37
.LBB7_23:
.Ltmp536:
	movq	%rax, %rcx
	movl	%edx, %eax
	movq	%rcx, -128(%rbp)
	movl	%eax, -132(%rbp)
	jmp	.LBB7_33
.LBB7_24:
.Ltmp539:
	movq	%rax, %rcx
	movl	%edx, %eax
	movq	%rcx, -128(%rbp)
	movl	%eax, -132(%rbp)
	jmp	.LBB7_32
.LBB7_25:
.Ltmp542:
	movq	%rax, %rcx
	movl	%edx, %eax
	movq	%rcx, -128(%rbp)
	movl	%eax, -132(%rbp)
	jmp	.LBB7_31
.LBB7_26:
.Ltmp545:
	movq	%rax, %rcx
	movl	%edx, %eax
	movq	%rcx, -128(%rbp)
	movl	%eax, -132(%rbp)
	jmp	.LBB7_30
.LBB7_27:
.Ltmp548:
	movq	%rax, %rcx
	movl	%edx, %eax
	movq	%rcx, -128(%rbp)
	movl	%eax, -132(%rbp)
	jmp	.LBB7_29
.LBB7_28:
.Ltmp551:
	movq	%rax, %rcx
	movl	%edx, %eax
	movq	%rcx, -128(%rbp)
	movl	%eax, -132(%rbp)
	leaq	-200(%rbp), %rdi
	callq	_ZNSt7__cxx1112basic_stringIcSt11char_traitsIcESaIcEED1Ev@PLT
.LBB7_29:
	leaq	-336(%rbp), %rdi
	callq	_ZNSt7__cxx1112basic_stringIcSt11char_traitsIcESaIcEED1Ev@PLT
.LBB7_30:
	leaq	-344(%rbp), %rdi
	callq	_ZNSaIcED1Ev@PLT
	leaq	-232(%rbp), %rdi
	callq	_ZNSt7__cxx1112basic_stringIcSt11char_traitsIcESaIcEED1Ev@PLT
.LBB7_31:
	leaq	-264(%rbp), %rdi
	callq	_ZNSt7__cxx1112basic_stringIcSt11char_traitsIcESaIcEED1Ev@PLT
.LBB7_32:
	leaq	-296(%rbp), %rdi
	callq	_ZNSt7__cxx1112basic_stringIcSt11char_traitsIcESaIcEED1Ev@PLT
.LBB7_33:
	leaq	-304(%rbp), %rdi
	callq	_ZNSaIcED1Ev@PLT
	jmp	.LBB7_35
.LBB7_34:
.Ltmp566:
	movq	%rax, %rcx
	movl	%edx, %eax
	movq	%rcx, -128(%rbp)
	movl	%eax, -132(%rbp)
	leaq	-168(%rbp), %rdi
	callq	_ZNSt7__cxx1112basic_stringIcSt11char_traitsIcESaIcEED1Ev@PLT
.LBB7_35:
	leaq	-48(%rbp), %rdi
	callq	_ZNSt7__cxx1112basic_stringIcSt11char_traitsIcESaIcEED1Ev@PLT
	jmp	.LBB7_37
.LBB7_36:
	addq	$432, %rsp                      # imm = 0x1B0
	popq	%rbp
	.cfi_def_cfa %rsp, 8
	retq
.LBB7_37:
	.cfi_def_cfa %rbp, 16
	movq	-128(%rbp), %rdi
	callq	_Unwind_Resume@PLT
.Lfunc_end7:
	.size	_Z20print_example_bannerNSt7__cxx1112basic_stringIcSt11char_traitsIcESaIcEEE, .Lfunc_end7-_Z20print_example_bannerNSt7__cxx1112basic_stringIcSt11char_traitsIcESaIcEEE
	.cfi_endproc
	.section	.gcc_except_table._Z20print_example_bannerNSt7__cxx1112basic_stringIcSt11char_traitsIcESaIcEEE,"aG",@progbits,_Z20print_example_bannerNSt7__cxx1112basic_stringIcSt11char_traitsIcESaIcEEE,comdat
	.p2align	2
GCC_except_table7:
.Lexception4:
	.byte	255                             # @LPStart Encoding = omit
	.byte	255                             # @TType Encoding = omit
	.byte	1                               # Call site Encoding = uleb128
	.uleb128 .Lcst_end4-.Lcst_begin4
.Lcst_begin4:
	.uleb128 .Ltmp525-.Lfunc_begin4         # >> Call Site 1 <<
	.uleb128 .Ltmp526-.Ltmp525              #   Call between .Ltmp525 and .Ltmp526
	.uleb128 .Ltmp527-.Lfunc_begin4         #     jumps to .Ltmp527
	.byte	0                               #   On action: cleanup
	.uleb128 .Ltmp528-.Lfunc_begin4         # >> Call Site 2 <<
	.uleb128 .Ltmp529-.Ltmp528              #   Call between .Ltmp528 and .Ltmp529
	.uleb128 .Ltmp530-.Lfunc_begin4         #     jumps to .Ltmp530
	.byte	0                               #   On action: cleanup
	.uleb128 .Ltmp531-.Lfunc_begin4         # >> Call Site 3 <<
	.uleb128 .Ltmp532-.Ltmp531              #   Call between .Ltmp531 and .Ltmp532
	.uleb128 .Ltmp533-.Lfunc_begin4         #     jumps to .Ltmp533
	.byte	0                               #   On action: cleanup
	.uleb128 .Ltmp534-.Lfunc_begin4         # >> Call Site 4 <<
	.uleb128 .Ltmp535-.Ltmp534              #   Call between .Ltmp534 and .Ltmp535
	.uleb128 .Ltmp536-.Lfunc_begin4         #     jumps to .Ltmp536
	.byte	0                               #   On action: cleanup
	.uleb128 .Ltmp537-.Lfunc_begin4         # >> Call Site 5 <<
	.uleb128 .Ltmp538-.Ltmp537              #   Call between .Ltmp537 and .Ltmp538
	.uleb128 .Ltmp539-.Lfunc_begin4         #     jumps to .Ltmp539
	.byte	0                               #   On action: cleanup
	.uleb128 .Ltmp540-.Lfunc_begin4         # >> Call Site 6 <<
	.uleb128 .Ltmp541-.Ltmp540              #   Call between .Ltmp540 and .Ltmp541
	.uleb128 .Ltmp542-.Lfunc_begin4         #     jumps to .Ltmp542
	.byte	0                               #   On action: cleanup
	.uleb128 .Ltmp543-.Lfunc_begin4         # >> Call Site 7 <<
	.uleb128 .Ltmp544-.Ltmp543              #   Call between .Ltmp543 and .Ltmp544
	.uleb128 .Ltmp545-.Lfunc_begin4         #     jumps to .Ltmp545
	.byte	0                               #   On action: cleanup
	.uleb128 .Ltmp546-.Lfunc_begin4         # >> Call Site 8 <<
	.uleb128 .Ltmp547-.Ltmp546              #   Call between .Ltmp546 and .Ltmp547
	.uleb128 .Ltmp548-.Lfunc_begin4         #     jumps to .Ltmp548
	.byte	0                               #   On action: cleanup
	.uleb128 .Ltmp549-.Lfunc_begin4         # >> Call Site 9 <<
	.uleb128 .Ltmp550-.Ltmp549              #   Call between .Ltmp549 and .Ltmp550
	.uleb128 .Ltmp551-.Lfunc_begin4         #     jumps to .Ltmp551
	.byte	0                               #   On action: cleanup
	.uleb128 .Ltmp552-.Lfunc_begin4         # >> Call Site 10 <<
	.uleb128 .Ltmp565-.Ltmp552              #   Call between .Ltmp552 and .Ltmp565
	.uleb128 .Ltmp566-.Lfunc_begin4         #     jumps to .Ltmp566
	.byte	0                               #   On action: cleanup
	.uleb128 .Ltmp565-.Lfunc_begin4         # >> Call Site 11 <<
	.uleb128 .Lfunc_end7-.Ltmp565           #   Call between .Ltmp565 and .Lfunc_end7
	.byte	0                               #     has no landing pad
	.byte	0                               #   On action: cleanup
.Lcst_end4:
	.p2align	2
                                        # -- End function
	.section	.text._ZN4seal20EncryptionParametersC2ENS_11scheme_typeE,"axG",@progbits,_ZN4seal20EncryptionParametersC2ENS_11scheme_typeE,comdat
	.weak	_ZN4seal20EncryptionParametersC2ENS_11scheme_typeE # -- Begin function _ZN4seal20EncryptionParametersC2ENS_11scheme_typeE
	.p2align	4, 0x90
	.type	_ZN4seal20EncryptionParametersC2ENS_11scheme_typeE,@function
_ZN4seal20EncryptionParametersC2ENS_11scheme_typeE: # @_ZN4seal20EncryptionParametersC2ENS_11scheme_typeE
.Lfunc_begin5:
	.cfi_startproc
	.cfi_personality 155, DW.ref.__gxx_personality_v0
	.cfi_lsda 27, .Lexception5
# %bb.0:
	pushq	%rbp
	.cfi_def_cfa_offset 16
	.cfi_offset %rbp, -16
	movq	%rsp, %rbp
	.cfi_def_cfa_register %rbp
	subq	$80, %rsp
	movb	%sil, %al
	movq	%rdi, -8(%rbp)
	movb	%al, -9(%rbp)
	movq	-8(%rbp), %rdi
	movq	%rdi, -48(%rbp)                 # 8-byte Spill
	movq	%rdi, %rax
	movq	%rax, -72(%rbp)                 # 8-byte Spill
	callq	_ZN4seal13MemoryManager7GetPoolEv
	movq	-48(%rbp), %rax                 # 8-byte Reload
	movb	-9(%rbp), %cl
	movb	%cl, 16(%rax)
	movq	$0, 24(%rax)
	movq	%rax, %rdi
	addq	$32, %rdi
	movq	%rdi, -64(%rbp)                 # 8-byte Spill
	xorps	%xmm0, %xmm0
	movups	%xmm0, 32(%rax)
	movq	$0, 48(%rax)
	callq	_ZNSt6vectorIN4seal7ModulusESaIS1_EEC2Ev
	movq	-48(%rbp), %rdi                 # 8-byte Reload
	addq	$56, %rdi
	movq	%rdi, -56(%rbp)                 # 8-byte Spill
	xorl	%eax, %eax
	movl	%eax, %esi
	movq	%rsi, -40(%rbp)                 # 8-byte Spill
	callq	_ZNSt10shared_ptrIN4seal29UniformRandomGeneratorFactoryEEC2EDn
	movq	-48(%rbp), %rdi                 # 8-byte Reload
	movq	-40(%rbp), %rsi                 # 8-byte Reload
	addq	$72, %rdi
.Ltmp567:
	callq	_ZN4seal7ModulusC2Em
.Ltmp568:
	jmp	.LBB8_1
.LBB8_1:
	movq	-72(%rbp), %rdi                 # 8-byte Reload
	movq	_ZN4seal13parms_id_zeroE@GOTPCREL(%rip), %rax
	movups	(%rax), %xmm0
	movups	16(%rax), %xmm1
	movups	%xmm1, 136(%rdi)
	movups	%xmm0, 120(%rdi)
.Ltmp569:
	callq	_ZN4seal20EncryptionParameters16compute_parms_idEv@PLT
.Ltmp570:
	jmp	.LBB8_2
.LBB8_2:
	addq	$80, %rsp
	popq	%rbp
	.cfi_def_cfa %rsp, 8
	retq
.LBB8_3:
	.cfi_def_cfa %rbp, 16
.Ltmp571:
	movq	-56(%rbp), %rdi                 # 8-byte Reload
	movq	%rax, %rcx
	movl	%edx, %eax
	movq	%rcx, -24(%rbp)
	movl	%eax, -28(%rbp)
	callq	_ZNSt10shared_ptrIN4seal29UniformRandomGeneratorFactoryEED2Ev
	movq	-64(%rbp), %rdi                 # 8-byte Reload
	callq	_ZNSt6vectorIN4seal7ModulusESaIS1_EED2Ev
	movq	-48(%rbp), %rdi                 # 8-byte Reload
	callq	_ZN4seal16MemoryPoolHandleD2Ev
# %bb.4:
	movq	-24(%rbp), %rdi
	callq	_Unwind_Resume@PLT
.Lfunc_end8:
	.size	_ZN4seal20EncryptionParametersC2ENS_11scheme_typeE, .Lfunc_end8-_ZN4seal20EncryptionParametersC2ENS_11scheme_typeE
	.cfi_endproc
	.section	.gcc_except_table._ZN4seal20EncryptionParametersC2ENS_11scheme_typeE,"aG",@progbits,_ZN4seal20EncryptionParametersC2ENS_11scheme_typeE,comdat
	.p2align	2
GCC_except_table8:
.Lexception5:
	.byte	255                             # @LPStart Encoding = omit
	.byte	255                             # @TType Encoding = omit
	.byte	1                               # Call site Encoding = uleb128
	.uleb128 .Lcst_end5-.Lcst_begin5
.Lcst_begin5:
	.uleb128 .Lfunc_begin5-.Lfunc_begin5    # >> Call Site 1 <<
	.uleb128 .Ltmp567-.Lfunc_begin5         #   Call between .Lfunc_begin5 and .Ltmp567
	.byte	0                               #     has no landing pad
	.byte	0                               #   On action: cleanup
	.uleb128 .Ltmp567-.Lfunc_begin5         # >> Call Site 2 <<
	.uleb128 .Ltmp570-.Ltmp567              #   Call between .Ltmp567 and .Ltmp570
	.uleb128 .Ltmp571-.Lfunc_begin5         #     jumps to .Ltmp571
	.byte	0                               #   On action: cleanup
	.uleb128 .Ltmp570-.Lfunc_begin5         # >> Call Site 3 <<
	.uleb128 .Lfunc_end8-.Ltmp570           #   Call between .Ltmp570 and .Lfunc_end8
	.byte	0                               #     has no landing pad
	.byte	0                               #   On action: cleanup
.Lcst_end5:
	.p2align	2
                                        # -- End function
	.section	.text._ZN4seal20EncryptionParameters23set_poly_modulus_degreeEm,"axG",@progbits,_ZN4seal20EncryptionParameters23set_poly_modulus_degreeEm,comdat
	.weak	_ZN4seal20EncryptionParameters23set_poly_modulus_degreeEm # -- Begin function _ZN4seal20EncryptionParameters23set_poly_modulus_degreeEm
	.p2align	4, 0x90
	.type	_ZN4seal20EncryptionParameters23set_poly_modulus_degreeEm,@function
_ZN4seal20EncryptionParameters23set_poly_modulus_degreeEm: # @_ZN4seal20EncryptionParameters23set_poly_modulus_degreeEm
.Lfunc_begin6:
	.cfi_startproc
	.cfi_personality 155, DW.ref.__gxx_personality_v0
	.cfi_lsda 27, .Lexception6
# %bb.0:
	pushq	%rbp
	.cfi_def_cfa_offset 16
	.cfi_offset %rbp, -16
	movq	%rsp, %rbp
	.cfi_def_cfa_register %rbp
	subq	$48, %rsp
	movq	%rdi, -8(%rbp)
	movq	%rsi, -16(%rbp)
	movq	-8(%rbp), %rax
	movq	%rax, -40(%rbp)                 # 8-byte Spill
	cmpb	$0, 16(%rax)
	jne	.LBB9_5
# %bb.1:
	cmpq	$0, -16(%rbp)
	je	.LBB9_5
# %bb.2:
	movl	$16, %edi
	callq	__cxa_allocate_exception@PLT
	movq	%rax, %rdi
	movq	%rdi, %rax
	movq	%rax, -48(%rbp)                 # 8-byte Spill
.Ltmp572:
	leaq	.L.str.41(%rip), %rsi
	callq	_ZNSt11logic_errorC1EPKc@PLT
.Ltmp573:
	jmp	.LBB9_3
.LBB9_3:
	movq	-48(%rbp), %rdi                 # 8-byte Reload
	movq	_ZTISt11logic_error@GOTPCREL(%rip), %rsi
	movq	_ZNSt11logic_errorD1Ev@GOTPCREL(%rip), %rdx
	callq	__cxa_throw@PLT
.LBB9_4:
.Ltmp574:
	movq	-48(%rbp), %rdi                 # 8-byte Reload
	movq	%rax, %rcx
	movl	%edx, %eax
	movq	%rcx, -24(%rbp)
	movl	%eax, -28(%rbp)
	callq	__cxa_free_exception@PLT
	jmp	.LBB9_6
.LBB9_5:
	movq	-40(%rbp), %rdi                 # 8-byte Reload
	movq	-16(%rbp), %rax
	movq	%rax, 24(%rdi)
	callq	_ZN4seal20EncryptionParameters16compute_parms_idEv@PLT
	addq	$48, %rsp
	popq	%rbp
	.cfi_def_cfa %rsp, 8
	retq
.LBB9_6:
	.cfi_def_cfa %rbp, 16
	movq	-24(%rbp), %rdi
	callq	_Unwind_Resume@PLT
.Lfunc_end9:
	.size	_ZN4seal20EncryptionParameters23set_poly_modulus_degreeEm, .Lfunc_end9-_ZN4seal20EncryptionParameters23set_poly_modulus_degreeEm
	.cfi_endproc
	.section	.gcc_except_table._ZN4seal20EncryptionParameters23set_poly_modulus_degreeEm,"aG",@progbits,_ZN4seal20EncryptionParameters23set_poly_modulus_degreeEm,comdat
	.p2align	2
GCC_except_table9:
.Lexception6:
	.byte	255                             # @LPStart Encoding = omit
	.byte	255                             # @TType Encoding = omit
	.byte	1                               # Call site Encoding = uleb128
	.uleb128 .Lcst_end6-.Lcst_begin6
.Lcst_begin6:
	.uleb128 .Lfunc_begin6-.Lfunc_begin6    # >> Call Site 1 <<
	.uleb128 .Ltmp572-.Lfunc_begin6         #   Call between .Lfunc_begin6 and .Ltmp572
	.byte	0                               #     has no landing pad
	.byte	0                               #   On action: cleanup
	.uleb128 .Ltmp572-.Lfunc_begin6         # >> Call Site 2 <<
	.uleb128 .Ltmp573-.Ltmp572              #   Call between .Ltmp572 and .Ltmp573
	.uleb128 .Ltmp574-.Lfunc_begin6         #     jumps to .Ltmp574
	.byte	0                               #   On action: cleanup
	.uleb128 .Ltmp573-.Lfunc_begin6         # >> Call Site 3 <<
	.uleb128 .Lfunc_end9-.Ltmp573           #   Call between .Ltmp573 and .Lfunc_end9
	.byte	0                               #     has no landing pad
	.byte	0                               #   On action: cleanup
.Lcst_end6:
	.p2align	2
                                        # -- End function
	.section	.text._ZN4seal20EncryptionParameters17set_coeff_modulusERKSt6vectorINS_7ModulusESaIS2_EE,"axG",@progbits,_ZN4seal20EncryptionParameters17set_coeff_modulusERKSt6vectorINS_7ModulusESaIS2_EE,comdat
	.weak	_ZN4seal20EncryptionParameters17set_coeff_modulusERKSt6vectorINS_7ModulusESaIS2_EE # -- Begin function _ZN4seal20EncryptionParameters17set_coeff_modulusERKSt6vectorINS_7ModulusESaIS2_EE
	.p2align	4, 0x90
	.type	_ZN4seal20EncryptionParameters17set_coeff_modulusERKSt6vectorINS_7ModulusESaIS2_EE,@function
_ZN4seal20EncryptionParameters17set_coeff_modulusERKSt6vectorINS_7ModulusESaIS2_EE: # @_ZN4seal20EncryptionParameters17set_coeff_modulusERKSt6vectorINS_7ModulusESaIS2_EE
.Lfunc_begin7:
	.cfi_startproc
	.cfi_personality 155, DW.ref.__gxx_personality_v0
	.cfi_lsda 27, .Lexception7
# %bb.0:
	pushq	%rbp
	.cfi_def_cfa_offset 16
	.cfi_offset %rbp, -16
	movq	%rsp, %rbp
	.cfi_def_cfa_register %rbp
	subq	$64, %rsp
	movq	%rdi, -8(%rbp)
	movq	%rsi, -16(%rbp)
	movq	-8(%rbp), %rax
	movq	%rax, -40(%rbp)                 # 8-byte Spill
	cmpb	$0, 16(%rax)
	jne	.LBB10_6
# %bb.1:
	movq	-16(%rbp), %rdi
	callq	_ZNKSt6vectorIN4seal7ModulusESaIS1_EE5emptyEv
	testb	$1, %al
	jne	.LBB10_5
# %bb.2:
	movl	$16, %edi
	callq	__cxa_allocate_exception@PLT
	movq	%rax, %rdi
	movq	%rdi, %rax
	movq	%rax, -48(%rbp)                 # 8-byte Spill
.Ltmp578:
	leaq	.L.str.42(%rip), %rsi
	callq	_ZNSt11logic_errorC1EPKc@PLT
.Ltmp579:
	jmp	.LBB10_3
.LBB10_3:
	movq	-48(%rbp), %rdi                 # 8-byte Reload
	movq	_ZTISt11logic_error@GOTPCREL(%rip), %rsi
	movq	_ZNSt11logic_errorD1Ev@GOTPCREL(%rip), %rdx
	callq	__cxa_throw@PLT
.LBB10_4:
.Ltmp580:
	movq	-48(%rbp), %rdi                 # 8-byte Reload
	movq	%rax, %rcx
	movl	%edx, %eax
	movq	%rcx, -24(%rbp)
	movl	%eax, -28(%rbp)
	callq	__cxa_free_exception@PLT
	jmp	.LBB10_13
.LBB10_5:
	jmp	.LBB10_12
.LBB10_6:
	movq	-16(%rbp), %rdi
	callq	_ZNKSt6vectorIN4seal7ModulusESaIS1_EE4sizeEv
	cmpq	$64, %rax
	ja	.LBB10_8
# %bb.7:
	movq	-16(%rbp), %rdi
	callq	_ZNKSt6vectorIN4seal7ModulusESaIS1_EE4sizeEv
	cmpq	$1, %rax
	jae	.LBB10_11
.LBB10_8:
	movl	$16, %edi
	callq	__cxa_allocate_exception@PLT
	movq	%rax, %rdi
	movq	%rdi, %rax
	movq	%rax, -56(%rbp)                 # 8-byte Spill
.Ltmp575:
	leaq	.L.str.43(%rip), %rsi
	callq	_ZNSt16invalid_argumentC1EPKc@PLT
.Ltmp576:
	jmp	.LBB10_9
.LBB10_9:
	movq	-56(%rbp), %rdi                 # 8-byte Reload
	movq	_ZTISt16invalid_argument@GOTPCREL(%rip), %rsi
	movq	_ZNSt16invalid_argumentD1Ev@GOTPCREL(%rip), %rdx
	callq	__cxa_throw@PLT
.LBB10_10:
.Ltmp577:
	movq	-56(%rbp), %rdi                 # 8-byte Reload
	movq	%rax, %rcx
	movl	%edx, %eax
	movq	%rcx, -24(%rbp)
	movl	%eax, -28(%rbp)
	callq	__cxa_free_exception@PLT
	jmp	.LBB10_13
.LBB10_11:
	jmp	.LBB10_12
.LBB10_12:
	movq	-40(%rbp), %rdi                 # 8-byte Reload
	movq	-16(%rbp), %rsi
	addq	$32, %rdi
	callq	_ZNSt6vectorIN4seal7ModulusESaIS1_EEaSERKS3_
	movq	-40(%rbp), %rdi                 # 8-byte Reload
	callq	_ZN4seal20EncryptionParameters16compute_parms_idEv@PLT
	addq	$64, %rsp
	popq	%rbp
	.cfi_def_cfa %rsp, 8
	retq
.LBB10_13:
	.cfi_def_cfa %rbp, 16
	movq	-24(%rbp), %rdi
	callq	_Unwind_Resume@PLT
.Lfunc_end10:
	.size	_ZN4seal20EncryptionParameters17set_coeff_modulusERKSt6vectorINS_7ModulusESaIS2_EE, .Lfunc_end10-_ZN4seal20EncryptionParameters17set_coeff_modulusERKSt6vectorINS_7ModulusESaIS2_EE
	.cfi_endproc
	.section	.gcc_except_table._ZN4seal20EncryptionParameters17set_coeff_modulusERKSt6vectorINS_7ModulusESaIS2_EE,"aG",@progbits,_ZN4seal20EncryptionParameters17set_coeff_modulusERKSt6vectorINS_7ModulusESaIS2_EE,comdat
	.p2align	2
GCC_except_table10:
.Lexception7:
	.byte	255                             # @LPStart Encoding = omit
	.byte	255                             # @TType Encoding = omit
	.byte	1                               # Call site Encoding = uleb128
	.uleb128 .Lcst_end7-.Lcst_begin7
.Lcst_begin7:
	.uleb128 .Lfunc_begin7-.Lfunc_begin7    # >> Call Site 1 <<
	.uleb128 .Ltmp578-.Lfunc_begin7         #   Call between .Lfunc_begin7 and .Ltmp578
	.byte	0                               #     has no landing pad
	.byte	0                               #   On action: cleanup
	.uleb128 .Ltmp578-.Lfunc_begin7         # >> Call Site 2 <<
	.uleb128 .Ltmp579-.Ltmp578              #   Call between .Ltmp578 and .Ltmp579
	.uleb128 .Ltmp580-.Lfunc_begin7         #     jumps to .Ltmp580
	.byte	0                               #   On action: cleanup
	.uleb128 .Ltmp579-.Lfunc_begin7         # >> Call Site 3 <<
	.uleb128 .Ltmp575-.Ltmp579              #   Call between .Ltmp579 and .Ltmp575
	.byte	0                               #     has no landing pad
	.byte	0                               #   On action: cleanup
	.uleb128 .Ltmp575-.Lfunc_begin7         # >> Call Site 4 <<
	.uleb128 .Ltmp576-.Ltmp575              #   Call between .Ltmp575 and .Ltmp576
	.uleb128 .Ltmp577-.Lfunc_begin7         #     jumps to .Ltmp577
	.byte	0                               #   On action: cleanup
	.uleb128 .Ltmp576-.Lfunc_begin7         # >> Call Site 5 <<
	.uleb128 .Lfunc_end10-.Ltmp576          #   Call between .Ltmp576 and .Lfunc_end10
	.byte	0                               #     has no landing pad
	.byte	0                               #   On action: cleanup
.Lcst_end7:
	.p2align	2
                                        # -- End function
	.section	.text._ZNSaIiEC2Ev,"axG",@progbits,_ZNSaIiEC2Ev,comdat
	.weak	_ZNSaIiEC2Ev                    # -- Begin function _ZNSaIiEC2Ev
	.p2align	4, 0x90
	.type	_ZNSaIiEC2Ev,@function
_ZNSaIiEC2Ev:                           # @_ZNSaIiEC2Ev
	.cfi_startproc
# %bb.0:
	pushq	%rbp
	.cfi_def_cfa_offset 16
	.cfi_offset %rbp, -16
	movq	%rsp, %rbp
	.cfi_def_cfa_register %rbp
	subq	$16, %rsp
	movq	%rdi, -8(%rbp)
	movq	-8(%rbp), %rdi
	callq	_ZN9__gnu_cxx13new_allocatorIiEC2Ev
	addq	$16, %rsp
	popq	%rbp
	.cfi_def_cfa %rsp, 8
	retq
.Lfunc_end11:
	.size	_ZNSaIiEC2Ev, .Lfunc_end11-_ZNSaIiEC2Ev
	.cfi_endproc
                                        # -- End function
	.section	.text._ZNSt6vectorIiSaIiEEC2ESt16initializer_listIiERKS0_,"axG",@progbits,_ZNSt6vectorIiSaIiEEC2ESt16initializer_listIiERKS0_,comdat
	.weak	_ZNSt6vectorIiSaIiEEC2ESt16initializer_listIiERKS0_ # -- Begin function _ZNSt6vectorIiSaIiEEC2ESt16initializer_listIiERKS0_
	.p2align	4, 0x90
	.type	_ZNSt6vectorIiSaIiEEC2ESt16initializer_listIiERKS0_,@function
_ZNSt6vectorIiSaIiEEC2ESt16initializer_listIiERKS0_: # @_ZNSt6vectorIiSaIiEEC2ESt16initializer_listIiERKS0_
.Lfunc_begin8:
	.cfi_startproc
	.cfi_personality 155, DW.ref.__gxx_personality_v0
	.cfi_lsda 27, .Lexception8
# %bb.0:
	pushq	%rbp
	.cfi_def_cfa_offset 16
	.cfi_offset %rbp, -16
	movq	%rsp, %rbp
	.cfi_def_cfa_register %rbp
	subq	$96, %rsp
	movq	%rsi, -16(%rbp)
	movq	%rdx, -8(%rbp)
	movq	%rdi, -24(%rbp)
	movq	%rcx, -32(%rbp)
	movq	-24(%rbp), %rdi
	movq	%rdi, -80(%rbp)                 # 8-byte Spill
	movq	-32(%rbp), %rsi
	callq	_ZNSt12_Vector_baseIiSaIiEEC2ERKS0_
	leaq	-16(%rbp), %rdi
	movq	%rdi, -88(%rbp)                 # 8-byte Spill
	callq	_ZNKSt16initializer_listIiE5beginEv
	movq	-88(%rbp), %rdi                 # 8-byte Reload
	movq	%rax, -72(%rbp)                 # 8-byte Spill
	callq	_ZNKSt16initializer_listIiE3endEv
	movq	-80(%rbp), %rdi                 # 8-byte Reload
	movq	-72(%rbp), %rsi                 # 8-byte Reload
	movq	%rax, %rdx
.Ltmp581:
	callq	_ZNSt6vectorIiSaIiEE19_M_range_initializeIPKiEEvT_S5_St20forward_iterator_tag
.Ltmp582:
	jmp	.LBB12_1
.LBB12_1:
	addq	$96, %rsp
	popq	%rbp
	.cfi_def_cfa %rsp, 8
	retq
.LBB12_2:
	.cfi_def_cfa %rbp, 16
.Ltmp583:
	movq	-80(%rbp), %rdi                 # 8-byte Reload
	movq	%rax, %rcx
	movl	%edx, %eax
	movq	%rcx, -56(%rbp)
	movl	%eax, -60(%rbp)
	callq	_ZNSt12_Vector_baseIiSaIiEED2Ev
# %bb.3:
	movq	-56(%rbp), %rdi
	callq	_Unwind_Resume@PLT
.Lfunc_end12:
	.size	_ZNSt6vectorIiSaIiEEC2ESt16initializer_listIiERKS0_, .Lfunc_end12-_ZNSt6vectorIiSaIiEEC2ESt16initializer_listIiERKS0_
	.cfi_endproc
	.section	.gcc_except_table._ZNSt6vectorIiSaIiEEC2ESt16initializer_listIiERKS0_,"aG",@progbits,_ZNSt6vectorIiSaIiEEC2ESt16initializer_listIiERKS0_,comdat
	.p2align	2
GCC_except_table12:
.Lexception8:
	.byte	255                             # @LPStart Encoding = omit
	.byte	255                             # @TType Encoding = omit
	.byte	1                               # Call site Encoding = uleb128
	.uleb128 .Lcst_end8-.Lcst_begin8
.Lcst_begin8:
	.uleb128 .Ltmp581-.Lfunc_begin8         # >> Call Site 1 <<
	.uleb128 .Ltmp582-.Ltmp581              #   Call between .Ltmp581 and .Ltmp582
	.uleb128 .Ltmp583-.Lfunc_begin8         #     jumps to .Ltmp583
	.byte	0                               #   On action: cleanup
	.uleb128 .Ltmp582-.Lfunc_begin8         # >> Call Site 2 <<
	.uleb128 .Lfunc_end12-.Ltmp582          #   Call between .Ltmp582 and .Lfunc_end12
	.byte	0                               #     has no landing pad
	.byte	0                               #   On action: cleanup
.Lcst_end8:
	.p2align	2
                                        # -- End function
	.section	.text._ZNSt6vectorIN4seal7ModulusESaIS1_EED2Ev,"axG",@progbits,_ZNSt6vectorIN4seal7ModulusESaIS1_EED2Ev,comdat
	.weak	_ZNSt6vectorIN4seal7ModulusESaIS1_EED2Ev # -- Begin function _ZNSt6vectorIN4seal7ModulusESaIS1_EED2Ev
	.p2align	4, 0x90
	.type	_ZNSt6vectorIN4seal7ModulusESaIS1_EED2Ev,@function
_ZNSt6vectorIN4seal7ModulusESaIS1_EED2Ev: # @_ZNSt6vectorIN4seal7ModulusESaIS1_EED2Ev
.Lfunc_begin9:
	.cfi_startproc
	.cfi_personality 155, DW.ref.__gxx_personality_v0
	.cfi_lsda 27, .Lexception9
# %bb.0:
	pushq	%rbp
	.cfi_def_cfa_offset 16
	.cfi_offset %rbp, -16
	movq	%rsp, %rbp
	.cfi_def_cfa_register %rbp
	subq	$48, %rsp
	movq	%rdi, -8(%rbp)
	movq	-8(%rbp), %rdi
	movq	%rdi, -48(%rbp)                 # 8-byte Spill
	movq	(%rdi), %rax
	movq	%rax, -40(%rbp)                 # 8-byte Spill
	movq	8(%rdi), %rax
	movq	%rax, -32(%rbp)                 # 8-byte Spill
	callq	_ZNSt12_Vector_baseIN4seal7ModulusESaIS1_EE19_M_get_Tp_allocatorEv
	movq	-40(%rbp), %rdi                 # 8-byte Reload
	movq	-32(%rbp), %rsi                 # 8-byte Reload
	movq	%rax, %rdx
.Ltmp584:
	callq	_ZSt8_DestroyIPN4seal7ModulusES1_EvT_S3_RSaIT0_E
.Ltmp585:
	jmp	.LBB13_1
.LBB13_1:
	movq	-48(%rbp), %rdi                 # 8-byte Reload
	callq	_ZNSt12_Vector_baseIN4seal7ModulusESaIS1_EED2Ev
	addq	$48, %rsp
	popq	%rbp
	.cfi_def_cfa %rsp, 8
	retq
.LBB13_2:
	.cfi_def_cfa %rbp, 16
.Ltmp586:
	movq	-48(%rbp), %rdi                 # 8-byte Reload
	movq	%rax, %rcx
	movl	%edx, %eax
	movq	%rcx, -16(%rbp)
	movl	%eax, -20(%rbp)
	callq	_ZNSt12_Vector_baseIN4seal7ModulusESaIS1_EED2Ev
# %bb.3:
	movq	-16(%rbp), %rdi
	callq	__clang_call_terminate
.Lfunc_end13:
	.size	_ZNSt6vectorIN4seal7ModulusESaIS1_EED2Ev, .Lfunc_end13-_ZNSt6vectorIN4seal7ModulusESaIS1_EED2Ev
	.cfi_endproc
	.section	.gcc_except_table._ZNSt6vectorIN4seal7ModulusESaIS1_EED2Ev,"aG",@progbits,_ZNSt6vectorIN4seal7ModulusESaIS1_EED2Ev,comdat
	.p2align	2
GCC_except_table13:
.Lexception9:
	.byte	255                             # @LPStart Encoding = omit
	.byte	155                             # @TType Encoding = indirect pcrel sdata4
	.uleb128 .Lttbase0-.Lttbaseref0
.Lttbaseref0:
	.byte	1                               # Call site Encoding = uleb128
	.uleb128 .Lcst_end9-.Lcst_begin9
.Lcst_begin9:
	.uleb128 .Ltmp584-.Lfunc_begin9         # >> Call Site 1 <<
	.uleb128 .Ltmp585-.Ltmp584              #   Call between .Ltmp584 and .Ltmp585
	.uleb128 .Ltmp586-.Lfunc_begin9         #     jumps to .Ltmp586
	.byte	1                               #   On action: 1
.Lcst_end9:
	.byte	1                               # >> Action Record 1 <<
                                        #   Catch TypeInfo 1
	.byte	0                               #   No further actions
	.p2align	2
                                        # >> Catch TypeInfos <<
	.long	0                               # TypeInfo 1
.Lttbase0:
	.p2align	2
                                        # -- End function
	.section	.text._ZNSt6vectorIiSaIiEED2Ev,"axG",@progbits,_ZNSt6vectorIiSaIiEED2Ev,comdat
	.weak	_ZNSt6vectorIiSaIiEED2Ev        # -- Begin function _ZNSt6vectorIiSaIiEED2Ev
	.p2align	4, 0x90
	.type	_ZNSt6vectorIiSaIiEED2Ev,@function
_ZNSt6vectorIiSaIiEED2Ev:               # @_ZNSt6vectorIiSaIiEED2Ev
.Lfunc_begin10:
	.cfi_startproc
	.cfi_personality 155, DW.ref.__gxx_personality_v0
	.cfi_lsda 27, .Lexception10
# %bb.0:
	pushq	%rbp
	.cfi_def_cfa_offset 16
	.cfi_offset %rbp, -16
	movq	%rsp, %rbp
	.cfi_def_cfa_register %rbp
	subq	$48, %rsp
	movq	%rdi, -8(%rbp)
	movq	-8(%rbp), %rdi
	movq	%rdi, -48(%rbp)                 # 8-byte Spill
	movq	(%rdi), %rax
	movq	%rax, -40(%rbp)                 # 8-byte Spill
	movq	8(%rdi), %rax
	movq	%rax, -32(%rbp)                 # 8-byte Spill
	callq	_ZNSt12_Vector_baseIiSaIiEE19_M_get_Tp_allocatorEv
	movq	-40(%rbp), %rdi                 # 8-byte Reload
	movq	-32(%rbp), %rsi                 # 8-byte Reload
	movq	%rax, %rdx
.Ltmp587:
	callq	_ZSt8_DestroyIPiiEvT_S1_RSaIT0_E
.Ltmp588:
	jmp	.LBB14_1
.LBB14_1:
	movq	-48(%rbp), %rdi                 # 8-byte Reload
	callq	_ZNSt12_Vector_baseIiSaIiEED2Ev
	addq	$48, %rsp
	popq	%rbp
	.cfi_def_cfa %rsp, 8
	retq
.LBB14_2:
	.cfi_def_cfa %rbp, 16
.Ltmp589:
	movq	-48(%rbp), %rdi                 # 8-byte Reload
	movq	%rax, %rcx
	movl	%edx, %eax
	movq	%rcx, -16(%rbp)
	movl	%eax, -20(%rbp)
	callq	_ZNSt12_Vector_baseIiSaIiEED2Ev
# %bb.3:
	movq	-16(%rbp), %rdi
	callq	__clang_call_terminate
.Lfunc_end14:
	.size	_ZNSt6vectorIiSaIiEED2Ev, .Lfunc_end14-_ZNSt6vectorIiSaIiEED2Ev
	.cfi_endproc
	.section	.gcc_except_table._ZNSt6vectorIiSaIiEED2Ev,"aG",@progbits,_ZNSt6vectorIiSaIiEED2Ev,comdat
	.p2align	2
GCC_except_table14:
.Lexception10:
	.byte	255                             # @LPStart Encoding = omit
	.byte	155                             # @TType Encoding = indirect pcrel sdata4
	.uleb128 .Lttbase1-.Lttbaseref1
.Lttbaseref1:
	.byte	1                               # Call site Encoding = uleb128
	.uleb128 .Lcst_end10-.Lcst_begin10
.Lcst_begin10:
	.uleb128 .Ltmp587-.Lfunc_begin10        # >> Call Site 1 <<
	.uleb128 .Ltmp588-.Ltmp587              #   Call between .Ltmp587 and .Ltmp588
	.uleb128 .Ltmp589-.Lfunc_begin10        #     jumps to .Ltmp589
	.byte	1                               #   On action: 1
.Lcst_end10:
	.byte	1                               # >> Action Record 1 <<
                                        #   Catch TypeInfo 1
	.byte	0                               #   No further actions
	.p2align	2
                                        # >> Catch TypeInfos <<
	.long	0                               # TypeInfo 1
.Lttbase1:
	.p2align	2
                                        # -- End function
	.section	.text._ZNSaIiED2Ev,"axG",@progbits,_ZNSaIiED2Ev,comdat
	.weak	_ZNSaIiED2Ev                    # -- Begin function _ZNSaIiED2Ev
	.p2align	4, 0x90
	.type	_ZNSaIiED2Ev,@function
_ZNSaIiED2Ev:                           # @_ZNSaIiED2Ev
	.cfi_startproc
# %bb.0:
	pushq	%rbp
	.cfi_def_cfa_offset 16
	.cfi_offset %rbp, -16
	movq	%rsp, %rbp
	.cfi_def_cfa_register %rbp
	subq	$16, %rsp
	movq	%rdi, -8(%rbp)
	movq	-8(%rbp), %rdi
	callq	_ZN9__gnu_cxx13new_allocatorIiED2Ev
	addq	$16, %rsp
	popq	%rbp
	.cfi_def_cfa %rsp, 8
	retq
.Lfunc_end15:
	.size	_ZNSaIiED2Ev, .Lfunc_end15-_ZNSaIiED2Ev
	.cfi_endproc
                                        # -- End function
	.section	.text._ZSt3powIdiEN9__gnu_cxx11__promote_2IT_T0_NS0_9__promoteIS2_Xsr3std12__is_integerIS2_EE7__valueEE6__typeENS4_IS3_Xsr3std12__is_integerIS3_EE7__valueEE6__typeEE6__typeES2_S3_,"axG",@progbits,_ZSt3powIdiEN9__gnu_cxx11__promote_2IT_T0_NS0_9__promoteIS2_Xsr3std12__is_integerIS2_EE7__valueEE6__typeENS4_IS3_Xsr3std12__is_integerIS3_EE7__valueEE6__typeEE6__typeES2_S3_,comdat
	.weak	_ZSt3powIdiEN9__gnu_cxx11__promote_2IT_T0_NS0_9__promoteIS2_Xsr3std12__is_integerIS2_EE7__valueEE6__typeENS4_IS3_Xsr3std12__is_integerIS3_EE7__valueEE6__typeEE6__typeES2_S3_ # -- Begin function _ZSt3powIdiEN9__gnu_cxx11__promote_2IT_T0_NS0_9__promoteIS2_Xsr3std12__is_integerIS2_EE7__valueEE6__typeENS4_IS3_Xsr3std12__is_integerIS3_EE7__valueEE6__typeEE6__typeES2_S3_
	.p2align	4, 0x90
	.type	_ZSt3powIdiEN9__gnu_cxx11__promote_2IT_T0_NS0_9__promoteIS2_Xsr3std12__is_integerIS2_EE7__valueEE6__typeENS4_IS3_Xsr3std12__is_integerIS3_EE7__valueEE6__typeEE6__typeES2_S3_,@function
_ZSt3powIdiEN9__gnu_cxx11__promote_2IT_T0_NS0_9__promoteIS2_Xsr3std12__is_integerIS2_EE7__valueEE6__typeENS4_IS3_Xsr3std12__is_integerIS3_EE7__valueEE6__typeEE6__typeES2_S3_: # @_ZSt3powIdiEN9__gnu_cxx11__promote_2IT_T0_NS0_9__promoteIS2_Xsr3std12__is_integerIS2_EE7__valueEE6__typeENS4_IS3_Xsr3std12__is_integerIS3_EE7__valueEE6__typeEE6__typeES2_S3_
	.cfi_startproc
# %bb.0:
	pushq	%rbp
	.cfi_def_cfa_offset 16
	.cfi_offset %rbp, -16
	movq	%rsp, %rbp
	.cfi_def_cfa_register %rbp
	subq	$16, %rsp
	movsd	%xmm0, -8(%rbp)
	movl	%edi, -12(%rbp)
	movsd	-8(%rbp), %xmm0                 # xmm0 = mem[0],zero
	cvtsi2sdl	-12(%rbp), %xmm1
	callq	pow@PLT
	addq	$16, %rsp
	popq	%rbp
	.cfi_def_cfa %rsp, 8
	retq
.Lfunc_end16:
	.size	_ZSt3powIdiEN9__gnu_cxx11__promote_2IT_T0_NS0_9__promoteIS2_Xsr3std12__is_integerIS2_EE7__valueEE6__typeENS4_IS3_Xsr3std12__is_integerIS3_EE7__valueEE6__typeEE6__typeES2_S3_, .Lfunc_end16-_ZSt3powIdiEN9__gnu_cxx11__promote_2IT_T0_NS0_9__promoteIS2_Xsr3std12__is_integerIS2_EE7__valueEE6__typeENS4_IS3_Xsr3std12__is_integerIS3_EE7__valueEE6__typeEE6__typeES2_S3_
	.cfi_endproc
                                        # -- End function
	.section	.text._ZN4seal11SEALContextC2ERKNS_20EncryptionParametersEbNS_14sec_level_typeE,"axG",@progbits,_ZN4seal11SEALContextC2ERKNS_20EncryptionParametersEbNS_14sec_level_typeE,comdat
	.weak	_ZN4seal11SEALContextC2ERKNS_20EncryptionParametersEbNS_14sec_level_typeE # -- Begin function _ZN4seal11SEALContextC2ERKNS_20EncryptionParametersEbNS_14sec_level_typeE
	.p2align	4, 0x90
	.type	_ZN4seal11SEALContextC2ERKNS_20EncryptionParametersEbNS_14sec_level_typeE,@function
_ZN4seal11SEALContextC2ERKNS_20EncryptionParametersEbNS_14sec_level_typeE: # @_ZN4seal11SEALContextC2ERKNS_20EncryptionParametersEbNS_14sec_level_typeE
.Lfunc_begin11:
	.cfi_startproc
	.cfi_personality 155, DW.ref.__gxx_personality_v0
	.cfi_lsda 27, .Lexception11
# %bb.0:
	pushq	%rbp
	.cfi_def_cfa_offset 16
	.cfi_offset %rbp, -16
	movq	%rsp, %rbp
	.cfi_def_cfa_register %rbp
	subq	$224, %rsp
	movb	%dl, %al
	movq	%rdi, -8(%rbp)
	movq	%rsi, -16(%rbp)
	andb	$1, %al
	movb	%al, -17(%rbp)
	movl	%ecx, -24(%rbp)
	movq	-8(%rbp), %rax
	movq	%rax, -224(%rbp)                # 8-byte Spill
	movq	-16(%rbp), %rsi
	leaq	-176(%rbp), %rdi
	callq	_ZN4seal20EncryptionParametersC2ERKS0_
	movb	-17(%rbp), %al
	movb	%al, -209(%rbp)                 # 1-byte Spill
	movl	-24(%rbp), %eax
	movl	%eax, -208(%rbp)                # 4-byte Spill
.Ltmp590:
	leaq	-192(%rbp), %rdi
	callq	_ZN4seal13MemoryManager7GetPoolEv
.Ltmp591:
	jmp	.LBB17_1
.LBB17_1:
.Ltmp593:
	movl	-208(%rbp), %ecx                # 4-byte Reload
	movq	-224(%rbp), %rdi                # 8-byte Reload
	movb	-209(%rbp), %al                 # 1-byte Reload
	movzbl	%al, %edx
	andl	$1, %edx
	leaq	-176(%rbp), %rsi
	leaq	-192(%rbp), %r8
	callq	_ZN4seal11SEALContextC2ENS_20EncryptionParametersEbNS_14sec_level_typeENS_16MemoryPoolHandleE@PLT
.Ltmp594:
	jmp	.LBB17_2
.LBB17_2:
	leaq	-192(%rbp), %rdi
	callq	_ZN4seal16MemoryPoolHandleD2Ev
	leaq	-176(%rbp), %rdi
	callq	_ZN4seal20EncryptionParametersD2Ev
	addq	$224, %rsp
	popq	%rbp
	.cfi_def_cfa %rsp, 8
	retq
.LBB17_3:
	.cfi_def_cfa %rbp, 16
.Ltmp592:
	movq	%rax, %rcx
	movl	%edx, %eax
	movq	%rcx, -200(%rbp)
	movl	%eax, -204(%rbp)
	jmp	.LBB17_5
.LBB17_4:
.Ltmp595:
	movq	%rax, %rcx
	movl	%edx, %eax
	movq	%rcx, -200(%rbp)
	movl	%eax, -204(%rbp)
	leaq	-192(%rbp), %rdi
	callq	_ZN4seal16MemoryPoolHandleD2Ev
.LBB17_5:
	leaq	-176(%rbp), %rdi
	callq	_ZN4seal20EncryptionParametersD2Ev
# %bb.6:
	movq	-200(%rbp), %rdi
	callq	_Unwind_Resume@PLT
.Lfunc_end17:
	.size	_ZN4seal11SEALContextC2ERKNS_20EncryptionParametersEbNS_14sec_level_typeE, .Lfunc_end17-_ZN4seal11SEALContextC2ERKNS_20EncryptionParametersEbNS_14sec_level_typeE
	.cfi_endproc
	.section	.gcc_except_table._ZN4seal11SEALContextC2ERKNS_20EncryptionParametersEbNS_14sec_level_typeE,"aG",@progbits,_ZN4seal11SEALContextC2ERKNS_20EncryptionParametersEbNS_14sec_level_typeE,comdat
	.p2align	2
GCC_except_table17:
.Lexception11:
	.byte	255                             # @LPStart Encoding = omit
	.byte	255                             # @TType Encoding = omit
	.byte	1                               # Call site Encoding = uleb128
	.uleb128 .Lcst_end11-.Lcst_begin11
.Lcst_begin11:
	.uleb128 .Lfunc_begin11-.Lfunc_begin11  # >> Call Site 1 <<
	.uleb128 .Ltmp590-.Lfunc_begin11        #   Call between .Lfunc_begin11 and .Ltmp590
	.byte	0                               #     has no landing pad
	.byte	0                               #   On action: cleanup
	.uleb128 .Ltmp590-.Lfunc_begin11        # >> Call Site 2 <<
	.uleb128 .Ltmp591-.Ltmp590              #   Call between .Ltmp590 and .Ltmp591
	.uleb128 .Ltmp592-.Lfunc_begin11        #     jumps to .Ltmp592
	.byte	0                               #   On action: cleanup
	.uleb128 .Ltmp593-.Lfunc_begin11        # >> Call Site 3 <<
	.uleb128 .Ltmp594-.Ltmp593              #   Call between .Ltmp593 and .Ltmp594
	.uleb128 .Ltmp595-.Lfunc_begin11        #     jumps to .Ltmp595
	.byte	0                               #   On action: cleanup
	.uleb128 .Ltmp594-.Lfunc_begin11        # >> Call Site 4 <<
	.uleb128 .Lfunc_end17-.Ltmp594          #   Call between .Ltmp594 and .Lfunc_end17
	.byte	0                               #     has no landing pad
	.byte	0                               #   On action: cleanup
.Lcst_end11:
	.p2align	2
                                        # -- End function
	.section	.text._ZNK4seal20EncryptionParameters13coeff_modulusEv,"axG",@progbits,_ZNK4seal20EncryptionParameters13coeff_modulusEv,comdat
	.weak	_ZNK4seal20EncryptionParameters13coeff_modulusEv # -- Begin function _ZNK4seal20EncryptionParameters13coeff_modulusEv
	.p2align	4, 0x90
	.type	_ZNK4seal20EncryptionParameters13coeff_modulusEv,@function
_ZNK4seal20EncryptionParameters13coeff_modulusEv: # @_ZNK4seal20EncryptionParameters13coeff_modulusEv
	.cfi_startproc
# %bb.0:
	pushq	%rbp
	.cfi_def_cfa_offset 16
	.cfi_offset %rbp, -16
	movq	%rsp, %rbp
	.cfi_def_cfa_register %rbp
	movq	%rdi, -8(%rbp)
	movq	-8(%rbp), %rax
	addq	$32, %rax
	popq	%rbp
	.cfi_def_cfa %rsp, 8
	retq
.Lfunc_end18:
	.size	_ZNK4seal20EncryptionParameters13coeff_modulusEv, .Lfunc_end18-_ZNK4seal20EncryptionParameters13coeff_modulusEv
	.cfi_endproc
                                        # -- End function
	.section	.text._ZNKSt6vectorIN4seal7ModulusESaIS1_EE5beginEv,"axG",@progbits,_ZNKSt6vectorIN4seal7ModulusESaIS1_EE5beginEv,comdat
	.weak	_ZNKSt6vectorIN4seal7ModulusESaIS1_EE5beginEv # -- Begin function _ZNKSt6vectorIN4seal7ModulusESaIS1_EE5beginEv
	.p2align	4, 0x90
	.type	_ZNKSt6vectorIN4seal7ModulusESaIS1_EE5beginEv,@function
_ZNKSt6vectorIN4seal7ModulusESaIS1_EE5beginEv: # @_ZNKSt6vectorIN4seal7ModulusESaIS1_EE5beginEv
	.cfi_startproc
# %bb.0:
	pushq	%rbp
	.cfi_def_cfa_offset 16
	.cfi_offset %rbp, -16
	movq	%rsp, %rbp
	.cfi_def_cfa_register %rbp
	subq	$16, %rsp
	movq	%rdi, -16(%rbp)
	movq	-16(%rbp), %rsi
	leaq	-8(%rbp), %rdi
	callq	_ZN9__gnu_cxx17__normal_iteratorIPKN4seal7ModulusESt6vectorIS2_SaIS2_EEEC2ERKS4_
	movq	-8(%rbp), %rax
	addq	$16, %rsp
	popq	%rbp
	.cfi_def_cfa %rsp, 8
	retq
.Lfunc_end19:
	.size	_ZNKSt6vectorIN4seal7ModulusESaIS1_EE5beginEv, .Lfunc_end19-_ZNKSt6vectorIN4seal7ModulusESaIS1_EE5beginEv
	.cfi_endproc
                                        # -- End function
	.section	.text._ZNKSt6vectorIN4seal7ModulusESaIS1_EE3endEv,"axG",@progbits,_ZNKSt6vectorIN4seal7ModulusESaIS1_EE3endEv,comdat
	.weak	_ZNKSt6vectorIN4seal7ModulusESaIS1_EE3endEv # -- Begin function _ZNKSt6vectorIN4seal7ModulusESaIS1_EE3endEv
	.p2align	4, 0x90
	.type	_ZNKSt6vectorIN4seal7ModulusESaIS1_EE3endEv,@function
_ZNKSt6vectorIN4seal7ModulusESaIS1_EE3endEv: # @_ZNKSt6vectorIN4seal7ModulusESaIS1_EE3endEv
	.cfi_startproc
# %bb.0:
	pushq	%rbp
	.cfi_def_cfa_offset 16
	.cfi_offset %rbp, -16
	movq	%rsp, %rbp
	.cfi_def_cfa_register %rbp
	subq	$16, %rsp
	movq	%rdi, -16(%rbp)
	movq	-16(%rbp), %rsi
	addq	$8, %rsi
	leaq	-8(%rbp), %rdi
	callq	_ZN9__gnu_cxx17__normal_iteratorIPKN4seal7ModulusESt6vectorIS2_SaIS2_EEEC2ERKS4_
	movq	-8(%rbp), %rax
	addq	$16, %rsp
	popq	%rbp
	.cfi_def_cfa %rsp, 8
	retq
.Lfunc_end20:
	.size	_ZNKSt6vectorIN4seal7ModulusESaIS1_EE3endEv, .Lfunc_end20-_ZNKSt6vectorIN4seal7ModulusESaIS1_EE3endEv
	.cfi_endproc
                                        # -- End function
	.section	.text._ZN9__gnu_cxxneIPKN4seal7ModulusESt6vectorIS2_SaIS2_EEEEbRKNS_17__normal_iteratorIT_T0_EESD_,"axG",@progbits,_ZN9__gnu_cxxneIPKN4seal7ModulusESt6vectorIS2_SaIS2_EEEEbRKNS_17__normal_iteratorIT_T0_EESD_,comdat
	.weak	_ZN9__gnu_cxxneIPKN4seal7ModulusESt6vectorIS2_SaIS2_EEEEbRKNS_17__normal_iteratorIT_T0_EESD_ # -- Begin function _ZN9__gnu_cxxneIPKN4seal7ModulusESt6vectorIS2_SaIS2_EEEEbRKNS_17__normal_iteratorIT_T0_EESD_
	.p2align	4, 0x90
	.type	_ZN9__gnu_cxxneIPKN4seal7ModulusESt6vectorIS2_SaIS2_EEEEbRKNS_17__normal_iteratorIT_T0_EESD_,@function
_ZN9__gnu_cxxneIPKN4seal7ModulusESt6vectorIS2_SaIS2_EEEEbRKNS_17__normal_iteratorIT_T0_EESD_: # @_ZN9__gnu_cxxneIPKN4seal7ModulusESt6vectorIS2_SaIS2_EEEEbRKNS_17__normal_iteratorIT_T0_EESD_
	.cfi_startproc
# %bb.0:
	pushq	%rbp
	.cfi_def_cfa_offset 16
	.cfi_offset %rbp, -16
	movq	%rsp, %rbp
	.cfi_def_cfa_register %rbp
	subq	$32, %rsp
	movq	%rdi, -8(%rbp)
	movq	%rsi, -16(%rbp)
	movq	-8(%rbp), %rdi
	callq	_ZNK9__gnu_cxx17__normal_iteratorIPKN4seal7ModulusESt6vectorIS2_SaIS2_EEE4baseEv
	movq	(%rax), %rax
	movq	%rax, -24(%rbp)                 # 8-byte Spill
	movq	-16(%rbp), %rdi
	callq	_ZNK9__gnu_cxx17__normal_iteratorIPKN4seal7ModulusESt6vectorIS2_SaIS2_EEE4baseEv
	movq	%rax, %rcx
	movq	-24(%rbp), %rax                 # 8-byte Reload
	cmpq	(%rcx), %rax
	setne	%al
	andb	$1, %al
	movzbl	%al, %eax
	addq	$32, %rsp
	popq	%rbp
	.cfi_def_cfa %rsp, 8
	retq
.Lfunc_end21:
	.size	_ZN9__gnu_cxxneIPKN4seal7ModulusESt6vectorIS2_SaIS2_EEEEbRKNS_17__normal_iteratorIT_T0_EESD_, .Lfunc_end21-_ZN9__gnu_cxxneIPKN4seal7ModulusESt6vectorIS2_SaIS2_EEEEbRKNS_17__normal_iteratorIT_T0_EESD_
	.cfi_endproc
                                        # -- End function
	.section	.text._ZNK9__gnu_cxx17__normal_iteratorIPKN4seal7ModulusESt6vectorIS2_SaIS2_EEEdeEv,"axG",@progbits,_ZNK9__gnu_cxx17__normal_iteratorIPKN4seal7ModulusESt6vectorIS2_SaIS2_EEEdeEv,comdat
	.weak	_ZNK9__gnu_cxx17__normal_iteratorIPKN4seal7ModulusESt6vectorIS2_SaIS2_EEEdeEv # -- Begin function _ZNK9__gnu_cxx17__normal_iteratorIPKN4seal7ModulusESt6vectorIS2_SaIS2_EEEdeEv
	.p2align	4, 0x90
	.type	_ZNK9__gnu_cxx17__normal_iteratorIPKN4seal7ModulusESt6vectorIS2_SaIS2_EEEdeEv,@function
_ZNK9__gnu_cxx17__normal_iteratorIPKN4seal7ModulusESt6vectorIS2_SaIS2_EEEdeEv: # @_ZNK9__gnu_cxx17__normal_iteratorIPKN4seal7ModulusESt6vectorIS2_SaIS2_EEEdeEv
	.cfi_startproc
# %bb.0:
	pushq	%rbp
	.cfi_def_cfa_offset 16
	.cfi_offset %rbp, -16
	movq	%rsp, %rbp
	.cfi_def_cfa_register %rbp
	movq	%rdi, -8(%rbp)
	movq	-8(%rbp), %rax
	movq	(%rax), %rax
	popq	%rbp
	.cfi_def_cfa %rsp, 8
	retq
.Lfunc_end22:
	.size	_ZNK9__gnu_cxx17__normal_iteratorIPKN4seal7ModulusESt6vectorIS2_SaIS2_EEEdeEv, .Lfunc_end22-_ZNK9__gnu_cxx17__normal_iteratorIPKN4seal7ModulusESt6vectorIS2_SaIS2_EEEdeEv
	.cfi_endproc
                                        # -- End function
	.section	.text._ZNK4seal7Modulus5valueEv,"axG",@progbits,_ZNK4seal7Modulus5valueEv,comdat
	.weak	_ZNK4seal7Modulus5valueEv       # -- Begin function _ZNK4seal7Modulus5valueEv
	.p2align	4, 0x90
	.type	_ZNK4seal7Modulus5valueEv,@function
_ZNK4seal7Modulus5valueEv:              # @_ZNK4seal7Modulus5valueEv
	.cfi_startproc
# %bb.0:
	pushq	%rbp
	.cfi_def_cfa_offset 16
	.cfi_offset %rbp, -16
	movq	%rsp, %rbp
	.cfi_def_cfa_register %rbp
	movq	%rdi, -8(%rbp)
	movq	-8(%rbp), %rax
	movq	(%rax), %rax
	popq	%rbp
	.cfi_def_cfa %rsp, 8
	retq
.Lfunc_end23:
	.size	_ZNK4seal7Modulus5valueEv, .Lfunc_end23-_ZNK4seal7Modulus5valueEv
	.cfi_endproc
                                        # -- End function
	.section	.text._ZN9__gnu_cxx17__normal_iteratorIPKN4seal7ModulusESt6vectorIS2_SaIS2_EEEppEv,"axG",@progbits,_ZN9__gnu_cxx17__normal_iteratorIPKN4seal7ModulusESt6vectorIS2_SaIS2_EEEppEv,comdat
	.weak	_ZN9__gnu_cxx17__normal_iteratorIPKN4seal7ModulusESt6vectorIS2_SaIS2_EEEppEv # -- Begin function _ZN9__gnu_cxx17__normal_iteratorIPKN4seal7ModulusESt6vectorIS2_SaIS2_EEEppEv
	.p2align	4, 0x90
	.type	_ZN9__gnu_cxx17__normal_iteratorIPKN4seal7ModulusESt6vectorIS2_SaIS2_EEEppEv,@function
_ZN9__gnu_cxx17__normal_iteratorIPKN4seal7ModulusESt6vectorIS2_SaIS2_EEEppEv: # @_ZN9__gnu_cxx17__normal_iteratorIPKN4seal7ModulusESt6vectorIS2_SaIS2_EEEppEv
	.cfi_startproc
# %bb.0:
	pushq	%rbp
	.cfi_def_cfa_offset 16
	.cfi_offset %rbp, -16
	movq	%rsp, %rbp
	.cfi_def_cfa_register %rbp
	movq	%rdi, -8(%rbp)
	movq	-8(%rbp), %rax
	movq	(%rax), %rcx
	addq	$48, %rcx
	movq	%rcx, (%rax)
	popq	%rbp
	.cfi_def_cfa %rsp, 8
	retq
.Lfunc_end24:
	.size	_ZN9__gnu_cxx17__normal_iteratorIPKN4seal7ModulusESt6vectorIS2_SaIS2_EEEppEv, .Lfunc_end24-_ZN9__gnu_cxx17__normal_iteratorIPKN4seal7ModulusESt6vectorIS2_SaIS2_EEEppEv
	.cfi_endproc
                                        # -- End function
	.section	.text._Z16print_parametersRKN4seal11SEALContextE,"axG",@progbits,_Z16print_parametersRKN4seal11SEALContextE,comdat
	.weak	_Z16print_parametersRKN4seal11SEALContextE # -- Begin function _Z16print_parametersRKN4seal11SEALContextE
	.p2align	4, 0x90
	.type	_Z16print_parametersRKN4seal11SEALContextE,@function
_Z16print_parametersRKN4seal11SEALContextE: # @_Z16print_parametersRKN4seal11SEALContextE
.Lfunc_begin12:
	.cfi_startproc
	.cfi_personality 155, DW.ref.__gxx_personality_v0
	.cfi_lsda 27, .Lexception12
# %bb.0:
	pushq	%rbp
	.cfi_def_cfa_offset 16
	.cfi_offset %rbp, -16
	movq	%rsp, %rbp
	.cfi_def_cfa_register %rbp
	subq	$256, %rsp                      # imm = 0x100
	movq	%rdi, -8(%rbp)
	movq	-8(%rbp), %rsi
	leaq	-32(%rbp), %rdi
	movq	%rdi, -144(%rbp)                # 8-byte Spill
	callq	_ZNK4seal11SEALContext16key_context_dataEv
	movq	-144(%rbp), %rdi                # 8-byte Reload
	callq	_ZNKSt19__shared_ptr_accessIKN4seal11SEALContext11ContextDataELN9__gnu_cxx12_Lock_policyE2ELb0ELb0EEdeEv
	movq	-144(%rbp), %rdi                # 8-byte Reload
	movq	%rax, -136(%rbp)                # 8-byte Spill
	callq	_ZNSt10shared_ptrIKN4seal11SEALContext11ContextDataEED2Ev
	movq	-136(%rbp), %rax                # 8-byte Reload
	movq	%rax, -16(%rbp)
	leaq	-64(%rbp), %rdi
	callq	_ZNSt7__cxx1112basic_stringIcSt11char_traitsIcESaIcEEC1Ev@PLT
	movq	-16(%rbp), %rdi
	callq	_ZNK4seal11SEALContext11ContextData5parmsEv
	movq	%rax, %rdi
	callq	_ZNK4seal20EncryptionParameters6schemeEv
	movb	%al, %cl
	movb	%cl, -121(%rbp)                 # 1-byte Spill
	subb	$1, %al
	je	.LBB25_1
	jmp	.LBB25_44
.LBB25_44:
	movb	-121(%rbp), %al                 # 1-byte Reload
	subb	$2, %al
	je	.LBB25_4
	jmp	.LBB25_6
.LBB25_1:
.Ltmp598:
	leaq	.L.str.44(%rip), %rsi
	leaq	-64(%rbp), %rdi
	callq	_ZNSt7__cxx1112basic_stringIcSt11char_traitsIcESaIcEEaSEPKc@PLT
.Ltmp599:
	jmp	.LBB25_2
.LBB25_2:
	jmp	.LBB25_9
.LBB25_3:
.Ltmp654:
	movq	%rax, %rcx
	movl	%edx, %eax
	movq	%rcx, -72(%rbp)
	movl	%eax, -76(%rbp)
	jmp	.LBB25_41
.LBB25_4:
.Ltmp596:
	leaq	.L.str.45(%rip), %rsi
	leaq	-64(%rbp), %rdi
	callq	_ZNSt7__cxx1112basic_stringIcSt11char_traitsIcESaIcEEaSEPKc@PLT
.Ltmp597:
	jmp	.LBB25_5
.LBB25_5:
	jmp	.LBB25_9
.LBB25_6:
	movl	$16, %edi
	callq	__cxa_allocate_exception@PLT
	movq	%rax, %rdi
	movq	%rdi, %rax
	movq	%rax, -152(%rbp)                # 8-byte Spill
.Ltmp649:
	leaq	.L.str.46(%rip), %rsi
	callq	_ZNSt16invalid_argumentC1EPKc@PLT
.Ltmp650:
	jmp	.LBB25_7
.LBB25_7:
.Ltmp652:
	movq	-152(%rbp), %rdi                # 8-byte Reload
	movq	_ZTISt16invalid_argument@GOTPCREL(%rip), %rsi
	movq	_ZNSt16invalid_argumentD1Ev@GOTPCREL(%rip), %rdx
	callq	__cxa_throw@PLT
.Ltmp653:
	jmp	.LBB25_43
.LBB25_8:
.Ltmp651:
	movq	-152(%rbp), %rdi                # 8-byte Reload
	movq	%rax, %rcx
	movl	%edx, %eax
	movq	%rcx, -72(%rbp)
	movl	%eax, -76(%rbp)
	callq	__cxa_free_exception@PLT
	jmp	.LBB25_41
.LBB25_9:
.Ltmp600:
	movq	_ZSt4cout@GOTPCREL(%rip), %rdi
	leaq	.L.str.47(%rip), %rsi
	callq	_ZStlsISt11char_traitsIcEERSt13basic_ostreamIcT_ES5_PKc@PLT
.Ltmp601:
	movq	%rax, -160(%rbp)                # 8-byte Spill
	jmp	.LBB25_10
.LBB25_10:
.Ltmp602:
	movq	-160(%rbp), %rdi                # 8-byte Reload
	movq	_ZSt4endlIcSt11char_traitsIcEERSt13basic_ostreamIT_T0_ES6_@GOTPCREL(%rip), %rsi
	callq	_ZNSolsEPFRSoS_E@PLT
.Ltmp603:
	jmp	.LBB25_11
.LBB25_11:
.Ltmp604:
	movq	_ZSt4cout@GOTPCREL(%rip), %rdi
	leaq	.L.str.48(%rip), %rsi
	callq	_ZStlsISt11char_traitsIcEERSt13basic_ostreamIcT_ES5_PKc@PLT
.Ltmp605:
	movq	%rax, -168(%rbp)                # 8-byte Spill
	jmp	.LBB25_12
.LBB25_12:
.Ltmp606:
	movq	-168(%rbp), %rdi                # 8-byte Reload
	movq	_ZSt4endlIcSt11char_traitsIcEERSt13basic_ostreamIT_T0_ES6_@GOTPCREL(%rip), %rsi
	callq	_ZNSolsEPFRSoS_E@PLT
.Ltmp607:
	jmp	.LBB25_13
.LBB25_13:
.Ltmp608:
	movq	_ZSt4cout@GOTPCREL(%rip), %rdi
	leaq	.L.str.49(%rip), %rsi
	callq	_ZStlsISt11char_traitsIcEERSt13basic_ostreamIcT_ES5_PKc@PLT
.Ltmp609:
	movq	%rax, -176(%rbp)                # 8-byte Spill
	jmp	.LBB25_14
.LBB25_14:
.Ltmp610:
	movq	-176(%rbp), %rdi                # 8-byte Reload
	leaq	-64(%rbp), %rsi
	callq	_ZStlsIcSt11char_traitsIcESaIcEERSt13basic_ostreamIT_T0_ES7_RKNSt7__cxx1112basic_stringIS4_S5_T1_EE@PLT
.Ltmp611:
	movq	%rax, -184(%rbp)                # 8-byte Spill
	jmp	.LBB25_15
.LBB25_15:
.Ltmp612:
	movq	-184(%rbp), %rdi                # 8-byte Reload
	movq	_ZSt4endlIcSt11char_traitsIcEERSt13basic_ostreamIT_T0_ES6_@GOTPCREL(%rip), %rsi
	callq	_ZNSolsEPFRSoS_E@PLT
.Ltmp613:
	jmp	.LBB25_16
.LBB25_16:
.Ltmp614:
	movq	_ZSt4cout@GOTPCREL(%rip), %rdi
	leaq	.L.str.50(%rip), %rsi
	callq	_ZStlsISt11char_traitsIcEERSt13basic_ostreamIcT_ES5_PKc@PLT
.Ltmp615:
	movq	%rax, -192(%rbp)                # 8-byte Spill
	jmp	.LBB25_17
.LBB25_17:
	movq	-16(%rbp), %rdi
	callq	_ZNK4seal11SEALContext11ContextData5parmsEv
	movq	%rax, %rdi
	callq	_ZNK4seal20EncryptionParameters19poly_modulus_degreeEv
	movq	-192(%rbp), %rdi                # 8-byte Reload
	movq	%rax, %rsi
.Ltmp616:
	callq	_ZNSolsEm@PLT
.Ltmp617:
	movq	%rax, -200(%rbp)                # 8-byte Spill
	jmp	.LBB25_18
.LBB25_18:
.Ltmp618:
	movq	-200(%rbp), %rdi                # 8-byte Reload
	movq	_ZSt4endlIcSt11char_traitsIcEERSt13basic_ostreamIT_T0_ES6_@GOTPCREL(%rip), %rsi
	callq	_ZNSolsEPFRSoS_E@PLT
.Ltmp619:
	jmp	.LBB25_19
.LBB25_19:
.Ltmp620:
	movq	_ZSt4cout@GOTPCREL(%rip), %rdi
	leaq	.L.str.51(%rip), %rsi
	callq	_ZStlsISt11char_traitsIcEERSt13basic_ostreamIcT_ES5_PKc@PLT
.Ltmp621:
	jmp	.LBB25_20
.LBB25_20:
	movq	-16(%rbp), %rdi
	callq	_ZNK4seal11SEALContext11ContextData29total_coeff_modulus_bit_countEv
	movl	%eax, %esi
.Ltmp622:
	movq	_ZSt4cout@GOTPCREL(%rip), %rdi
	callq	_ZNSolsEi@PLT
.Ltmp623:
	movq	%rax, -208(%rbp)                # 8-byte Spill
	jmp	.LBB25_21
.LBB25_21:
.Ltmp624:
	movq	-208(%rbp), %rdi                # 8-byte Reload
	leaq	.L.str.52(%rip), %rsi
	callq	_ZStlsISt11char_traitsIcEERSt13basic_ostreamIcT_ES5_PKc@PLT
.Ltmp625:
	jmp	.LBB25_22
.LBB25_22:
	movq	-16(%rbp), %rdi
	callq	_ZNK4seal11SEALContext11ContextData5parmsEv
	movq	%rax, %rdi
	callq	_ZNK4seal20EncryptionParameters13coeff_modulusEv
	movq	%rax, %rsi
.Ltmp626:
	leaq	-104(%rbp), %rdi
	callq	_ZNSt6vectorIN4seal7ModulusESaIS1_EEC2ERKS3_
.Ltmp627:
	jmp	.LBB25_23
.LBB25_23:
	leaq	-104(%rbp), %rdi
	callq	_ZNKSt6vectorIN4seal7ModulusESaIS1_EE4sizeEv
	movq	%rax, -112(%rbp)
	movq	$0, -120(%rbp)
.LBB25_24:                              # =>This Inner Loop Header: Depth=1
	movq	-120(%rbp), %rax
	movq	-112(%rbp), %rcx
	subq	$1, %rcx
	cmpq	%rcx, %rax
	jae	.LBB25_30
# %bb.25:                               #   in Loop: Header=BB25_24 Depth=1
	movq	-120(%rbp), %rsi
	leaq	-104(%rbp), %rdi
	callq	_ZNSt6vectorIN4seal7ModulusESaIS1_EEixEm
	movq	%rax, %rdi
	callq	_ZNK4seal7Modulus9bit_countEv
	movl	%eax, %esi
.Ltmp644:
	movq	_ZSt4cout@GOTPCREL(%rip), %rdi
	callq	_ZNSolsEi@PLT
.Ltmp645:
	movq	%rax, -216(%rbp)                # 8-byte Spill
	jmp	.LBB25_26
.LBB25_26:                              #   in Loop: Header=BB25_24 Depth=1
.Ltmp646:
	movq	-216(%rbp), %rdi                # 8-byte Reload
	leaq	.L.str.53(%rip), %rsi
	callq	_ZStlsISt11char_traitsIcEERSt13basic_ostreamIcT_ES5_PKc@PLT
.Ltmp647:
	jmp	.LBB25_27
.LBB25_27:                              #   in Loop: Header=BB25_24 Depth=1
	jmp	.LBB25_28
.LBB25_28:                              #   in Loop: Header=BB25_24 Depth=1
	movq	-120(%rbp), %rax
	addq	$1, %rax
	movq	%rax, -120(%rbp)
	jmp	.LBB25_24
.LBB25_29:
.Ltmp648:
	movq	%rax, %rcx
	movl	%edx, %eax
	movq	%rcx, -72(%rbp)
	movl	%eax, -76(%rbp)
	leaq	-104(%rbp), %rdi
	callq	_ZNSt6vectorIN4seal7ModulusESaIS1_EED2Ev
	jmp	.LBB25_41
.LBB25_30:
	leaq	-104(%rbp), %rdi
	callq	_ZNSt6vectorIN4seal7ModulusESaIS1_EE4backEv
	movq	%rax, %rdi
	callq	_ZNK4seal7Modulus9bit_countEv
	movl	%eax, %esi
.Ltmp628:
	movq	_ZSt4cout@GOTPCREL(%rip), %rdi
	callq	_ZNSolsEi@PLT
.Ltmp629:
	jmp	.LBB25_31
.LBB25_31:
.Ltmp630:
	movq	_ZSt4cout@GOTPCREL(%rip), %rdi
	leaq	.L.str.54(%rip), %rsi
	callq	_ZStlsISt11char_traitsIcEERSt13basic_ostreamIcT_ES5_PKc@PLT
.Ltmp631:
	movq	%rax, -224(%rbp)                # 8-byte Spill
	jmp	.LBB25_32
.LBB25_32:
.Ltmp632:
	movq	-224(%rbp), %rdi                # 8-byte Reload
	movq	_ZSt4endlIcSt11char_traitsIcEERSt13basic_ostreamIT_T0_ES6_@GOTPCREL(%rip), %rsi
	callq	_ZNSolsEPFRSoS_E@PLT
.Ltmp633:
	jmp	.LBB25_33
.LBB25_33:
	movq	-16(%rbp), %rdi
	callq	_ZNK4seal11SEALContext11ContextData5parmsEv
	movq	%rax, %rdi
	callq	_ZNK4seal20EncryptionParameters6schemeEv
	cmpb	$1, %al
	jne	.LBB25_38
# %bb.34:
.Ltmp634:
	movq	_ZSt4cout@GOTPCREL(%rip), %rdi
	leaq	.L.str.55(%rip), %rsi
	callq	_ZStlsISt11char_traitsIcEERSt13basic_ostreamIcT_ES5_PKc@PLT
.Ltmp635:
	movq	%rax, -232(%rbp)                # 8-byte Spill
	jmp	.LBB25_35
.LBB25_35:
	movq	-16(%rbp), %rdi
	callq	_ZNK4seal11SEALContext11ContextData5parmsEv
	movq	%rax, %rdi
	callq	_ZNK4seal20EncryptionParameters13plain_modulusEv
	movq	%rax, %rdi
	callq	_ZNK4seal7Modulus5valueEv
	movq	-232(%rbp), %rdi                # 8-byte Reload
	movq	%rax, %rsi
.Ltmp636:
	callq	_ZNSolsEm@PLT
.Ltmp637:
	movq	%rax, -240(%rbp)                # 8-byte Spill
	jmp	.LBB25_36
.LBB25_36:
.Ltmp638:
	movq	-240(%rbp), %rdi                # 8-byte Reload
	movq	_ZSt4endlIcSt11char_traitsIcEERSt13basic_ostreamIT_T0_ES6_@GOTPCREL(%rip), %rsi
	callq	_ZNSolsEPFRSoS_E@PLT
.Ltmp639:
	jmp	.LBB25_37
.LBB25_37:
	jmp	.LBB25_38
.LBB25_38:
.Ltmp640:
	movq	_ZSt4cout@GOTPCREL(%rip), %rdi
	leaq	.L.str.56(%rip), %rsi
	callq	_ZStlsISt11char_traitsIcEERSt13basic_ostreamIcT_ES5_PKc@PLT
.Ltmp641:
	movq	%rax, -248(%rbp)                # 8-byte Spill
	jmp	.LBB25_39
.LBB25_39:
.Ltmp642:
	movq	-248(%rbp), %rdi                # 8-byte Reload
	movq	_ZSt4endlIcSt11char_traitsIcEERSt13basic_ostreamIT_T0_ES6_@GOTPCREL(%rip), %rsi
	callq	_ZNSolsEPFRSoS_E@PLT
.Ltmp643:
	jmp	.LBB25_40
.LBB25_40:
	leaq	-104(%rbp), %rdi
	callq	_ZNSt6vectorIN4seal7ModulusESaIS1_EED2Ev
	leaq	-64(%rbp), %rdi
	callq	_ZNSt7__cxx1112basic_stringIcSt11char_traitsIcESaIcEED1Ev@PLT
	addq	$256, %rsp                      # imm = 0x100
	popq	%rbp
	.cfi_def_cfa %rsp, 8
	retq
.LBB25_41:
	.cfi_def_cfa %rbp, 16
	leaq	-64(%rbp), %rdi
	callq	_ZNSt7__cxx1112basic_stringIcSt11char_traitsIcESaIcEED1Ev@PLT
# %bb.42:
	movq	-72(%rbp), %rdi
	callq	_Unwind_Resume@PLT
.LBB25_43:
.Lfunc_end25:
	.size	_Z16print_parametersRKN4seal11SEALContextE, .Lfunc_end25-_Z16print_parametersRKN4seal11SEALContextE
	.cfi_endproc
	.section	.gcc_except_table._Z16print_parametersRKN4seal11SEALContextE,"aG",@progbits,_Z16print_parametersRKN4seal11SEALContextE,comdat
	.p2align	2
GCC_except_table25:
.Lexception12:
	.byte	255                             # @LPStart Encoding = omit
	.byte	255                             # @TType Encoding = omit
	.byte	1                               # Call site Encoding = uleb128
	.uleb128 .Lcst_end12-.Lcst_begin12
.Lcst_begin12:
	.uleb128 .Lfunc_begin12-.Lfunc_begin12  # >> Call Site 1 <<
	.uleb128 .Ltmp598-.Lfunc_begin12        #   Call between .Lfunc_begin12 and .Ltmp598
	.byte	0                               #     has no landing pad
	.byte	0                               #   On action: cleanup
	.uleb128 .Ltmp598-.Lfunc_begin12        # >> Call Site 2 <<
	.uleb128 .Ltmp597-.Ltmp598              #   Call between .Ltmp598 and .Ltmp597
	.uleb128 .Ltmp654-.Lfunc_begin12        #     jumps to .Ltmp654
	.byte	0                               #   On action: cleanup
	.uleb128 .Ltmp597-.Lfunc_begin12        # >> Call Site 3 <<
	.uleb128 .Ltmp649-.Ltmp597              #   Call between .Ltmp597 and .Ltmp649
	.byte	0                               #     has no landing pad
	.byte	0                               #   On action: cleanup
	.uleb128 .Ltmp649-.Lfunc_begin12        # >> Call Site 4 <<
	.uleb128 .Ltmp650-.Ltmp649              #   Call between .Ltmp649 and .Ltmp650
	.uleb128 .Ltmp651-.Lfunc_begin12        #     jumps to .Ltmp651
	.byte	0                               #   On action: cleanup
	.uleb128 .Ltmp652-.Lfunc_begin12        # >> Call Site 5 <<
	.uleb128 .Ltmp653-.Ltmp652              #   Call between .Ltmp652 and .Ltmp653
	.uleb128 .Ltmp654-.Lfunc_begin12        #     jumps to .Ltmp654
	.byte	0                               #   On action: cleanup
	.uleb128 .Ltmp653-.Lfunc_begin12        # >> Call Site 6 <<
	.uleb128 .Ltmp600-.Ltmp653              #   Call between .Ltmp653 and .Ltmp600
	.byte	0                               #     has no landing pad
	.byte	0                               #   On action: cleanup
	.uleb128 .Ltmp600-.Lfunc_begin12        # >> Call Site 7 <<
	.uleb128 .Ltmp627-.Ltmp600              #   Call between .Ltmp600 and .Ltmp627
	.uleb128 .Ltmp654-.Lfunc_begin12        #     jumps to .Ltmp654
	.byte	0                               #   On action: cleanup
	.uleb128 .Ltmp644-.Lfunc_begin12        # >> Call Site 8 <<
	.uleb128 .Ltmp643-.Ltmp644              #   Call between .Ltmp644 and .Ltmp643
	.uleb128 .Ltmp648-.Lfunc_begin12        #     jumps to .Ltmp648
	.byte	0                               #   On action: cleanup
	.uleb128 .Ltmp643-.Lfunc_begin12        # >> Call Site 9 <<
	.uleb128 .Lfunc_end25-.Ltmp643          #   Call between .Ltmp643 and .Lfunc_end25
	.byte	0                               #     has no landing pad
	.byte	0                               #   On action: cleanup
.Lcst_end12:
	.p2align	2
                                        # -- End function
	.section	.text._ZN4seal9SecretKeyC2ERKS0_,"axG",@progbits,_ZN4seal9SecretKeyC2ERKS0_,comdat
	.weak	_ZN4seal9SecretKeyC2ERKS0_      # -- Begin function _ZN4seal9SecretKeyC2ERKS0_
	.p2align	4, 0x90
	.type	_ZN4seal9SecretKeyC2ERKS0_,@function
_ZN4seal9SecretKeyC2ERKS0_:             # @_ZN4seal9SecretKeyC2ERKS0_
.Lfunc_begin13:
	.cfi_startproc
	.cfi_personality 155, DW.ref.__gxx_personality_v0
	.cfi_lsda 27, .Lexception13
# %bb.0:
	pushq	%rbp
	.cfi_def_cfa_offset 16
	.cfi_offset %rbp, -16
	movq	%rsp, %rbp
	.cfi_def_cfa_register %rbp
	subq	$80, %rsp
	movq	%rdi, -8(%rbp)
	movq	%rsi, -16(%rbp)
	movq	-8(%rbp), %rax
	movq	%rax, -72(%rbp)                 # 8-byte Spill
	movq	%rax, -80(%rbp)                 # 8-byte Spill
	movb	$1, -33(%rbp)
	leaq	-32(%rbp), %rdi
	movq	%rdi, -64(%rbp)                 # 8-byte Spill
	movl	$2, %esi
	leaq	-33(%rbp), %rdx
	callq	_ZN4seal13MemoryManager7GetPoolIJbEEENS_16MemoryPoolHandleEmDpOT_
	movq	-72(%rbp), %rdi                 # 8-byte Reload
	movq	-64(%rbp), %rsi                 # 8-byte Reload
.Ltmp655:
	callq	_ZN4seal9PlaintextC2ENS_16MemoryPoolHandleE
.Ltmp656:
	jmp	.LBB26_1
.LBB26_1:
	leaq	-32(%rbp), %rdi
	callq	_ZN4seal16MemoryPoolHandleD2Ev
	movq	-80(%rbp), %rdi                 # 8-byte Reload
	movq	-16(%rbp), %rsi
.Ltmp658:
	callq	_ZN4seal9PlaintextaSERKS0_
.Ltmp659:
	jmp	.LBB26_2
.LBB26_2:
	addq	$80, %rsp
	popq	%rbp
	.cfi_def_cfa %rsp, 8
	retq
.LBB26_3:
	.cfi_def_cfa %rbp, 16
.Ltmp657:
	movq	%rax, %rcx
	movl	%edx, %eax
	movq	%rcx, -48(%rbp)
	movl	%eax, -52(%rbp)
	leaq	-32(%rbp), %rdi
	callq	_ZN4seal16MemoryPoolHandleD2Ev
	jmp	.LBB26_5
.LBB26_4:
.Ltmp660:
	movq	-72(%rbp), %rdi                 # 8-byte Reload
	movq	%rax, %rcx
	movl	%edx, %eax
	movq	%rcx, -48(%rbp)
	movl	%eax, -52(%rbp)
	callq	_ZN4seal9PlaintextD2Ev
.LBB26_5:
	movq	-48(%rbp), %rdi
	callq	_Unwind_Resume@PLT
.Lfunc_end26:
	.size	_ZN4seal9SecretKeyC2ERKS0_, .Lfunc_end26-_ZN4seal9SecretKeyC2ERKS0_
	.cfi_endproc
	.section	.gcc_except_table._ZN4seal9SecretKeyC2ERKS0_,"aG",@progbits,_ZN4seal9SecretKeyC2ERKS0_,comdat
	.p2align	2
GCC_except_table26:
.Lexception13:
	.byte	255                             # @LPStart Encoding = omit
	.byte	255                             # @TType Encoding = omit
	.byte	1                               # Call site Encoding = uleb128
	.uleb128 .Lcst_end13-.Lcst_begin13
.Lcst_begin13:
	.uleb128 .Lfunc_begin13-.Lfunc_begin13  # >> Call Site 1 <<
	.uleb128 .Ltmp655-.Lfunc_begin13        #   Call between .Lfunc_begin13 and .Ltmp655
	.byte	0                               #     has no landing pad
	.byte	0                               #   On action: cleanup
	.uleb128 .Ltmp655-.Lfunc_begin13        # >> Call Site 2 <<
	.uleb128 .Ltmp656-.Ltmp655              #   Call between .Ltmp655 and .Ltmp656
	.uleb128 .Ltmp657-.Lfunc_begin13        #     jumps to .Ltmp657
	.byte	0                               #   On action: cleanup
	.uleb128 .Ltmp658-.Lfunc_begin13        # >> Call Site 3 <<
	.uleb128 .Ltmp659-.Ltmp658              #   Call between .Ltmp658 and .Ltmp659
	.uleb128 .Ltmp660-.Lfunc_begin13        #     jumps to .Ltmp660
	.byte	0                               #   On action: cleanup
	.uleb128 .Ltmp659-.Lfunc_begin13        # >> Call Site 4 <<
	.uleb128 .Lfunc_end26-.Ltmp659          #   Call between .Ltmp659 and .Lfunc_end26
	.byte	0                               #     has no landing pad
	.byte	0                               #   On action: cleanup
.Lcst_end13:
	.p2align	2
                                        # -- End function
	.section	.text._ZN4seal9PublicKeyC2Ev,"axG",@progbits,_ZN4seal9PublicKeyC2Ev,comdat
	.weak	_ZN4seal9PublicKeyC2Ev          # -- Begin function _ZN4seal9PublicKeyC2Ev
	.p2align	4, 0x90
	.type	_ZN4seal9PublicKeyC2Ev,@function
_ZN4seal9PublicKeyC2Ev:                 # @_ZN4seal9PublicKeyC2Ev
.Lfunc_begin14:
	.cfi_startproc
	.cfi_personality 155, DW.ref.__gxx_personality_v0
	.cfi_lsda 27, .Lexception14
# %bb.0:
	pushq	%rbp
	.cfi_def_cfa_offset 16
	.cfi_offset %rbp, -16
	movq	%rsp, %rbp
	.cfi_def_cfa_register %rbp
	subq	$64, %rsp
	movq	%rdi, -8(%rbp)
	movq	-8(%rbp), %rax
	movq	%rax, -56(%rbp)                 # 8-byte Spill
	leaq	-24(%rbp), %rdi
	movq	%rdi, -48(%rbp)                 # 8-byte Spill
	callq	_ZN4seal13MemoryManager7GetPoolEv
	movq	-56(%rbp), %rdi                 # 8-byte Reload
	movq	-48(%rbp), %rsi                 # 8-byte Reload
.Ltmp661:
	callq	_ZN4seal10CiphertextC2ENS_16MemoryPoolHandleE
.Ltmp662:
	jmp	.LBB27_1
.LBB27_1:
	leaq	-24(%rbp), %rdi
	callq	_ZN4seal16MemoryPoolHandleD2Ev
	addq	$64, %rsp
	popq	%rbp
	.cfi_def_cfa %rsp, 8
	retq
.LBB27_2:
	.cfi_def_cfa %rbp, 16
.Ltmp663:
	movq	%rax, %rcx
	movl	%edx, %eax
	movq	%rcx, -32(%rbp)
	movl	%eax, -36(%rbp)
	leaq	-24(%rbp), %rdi
	callq	_ZN4seal16MemoryPoolHandleD2Ev
# %bb.3:
	movq	-32(%rbp), %rdi
	callq	_Unwind_Resume@PLT
.Lfunc_end27:
	.size	_ZN4seal9PublicKeyC2Ev, .Lfunc_end27-_ZN4seal9PublicKeyC2Ev
	.cfi_endproc
	.section	.gcc_except_table._ZN4seal9PublicKeyC2Ev,"aG",@progbits,_ZN4seal9PublicKeyC2Ev,comdat
	.p2align	2
GCC_except_table27:
.Lexception14:
	.byte	255                             # @LPStart Encoding = omit
	.byte	255                             # @TType Encoding = omit
	.byte	1                               # Call site Encoding = uleb128
	.uleb128 .Lcst_end14-.Lcst_begin14
.Lcst_begin14:
	.uleb128 .Lfunc_begin14-.Lfunc_begin14  # >> Call Site 1 <<
	.uleb128 .Ltmp661-.Lfunc_begin14        #   Call between .Lfunc_begin14 and .Ltmp661
	.byte	0                               #     has no landing pad
	.byte	0                               #   On action: cleanup
	.uleb128 .Ltmp661-.Lfunc_begin14        # >> Call Site 2 <<
	.uleb128 .Ltmp662-.Ltmp661              #   Call between .Ltmp661 and .Ltmp662
	.uleb128 .Ltmp663-.Lfunc_begin14        #     jumps to .Ltmp663
	.byte	0                               #   On action: cleanup
	.uleb128 .Ltmp662-.Lfunc_begin14        # >> Call Site 3 <<
	.uleb128 .Lfunc_end27-.Ltmp662          #   Call between .Ltmp662 and .Lfunc_end27
	.byte	0                               #     has no landing pad
	.byte	0                               #   On action: cleanup
.Lcst_end14:
	.p2align	2
                                        # -- End function
	.section	.text._ZNK4seal12KeyGenerator17create_public_keyERNS_9PublicKeyE,"axG",@progbits,_ZNK4seal12KeyGenerator17create_public_keyERNS_9PublicKeyE,comdat
	.weak	_ZNK4seal12KeyGenerator17create_public_keyERNS_9PublicKeyE # -- Begin function _ZNK4seal12KeyGenerator17create_public_keyERNS_9PublicKeyE
	.p2align	4, 0x90
	.type	_ZNK4seal12KeyGenerator17create_public_keyERNS_9PublicKeyE,@function
_ZNK4seal12KeyGenerator17create_public_keyERNS_9PublicKeyE: # @_ZNK4seal12KeyGenerator17create_public_keyERNS_9PublicKeyE
	.cfi_startproc
# %bb.0:
	pushq	%rbp
	.cfi_def_cfa_offset 16
	.cfi_offset %rbp, -16
	movq	%rsp, %rbp
	.cfi_def_cfa_register %rbp
	subq	$160, %rsp
	movq	%rdi, -8(%rbp)
	movq	%rsi, -16(%rbp)
	movq	-8(%rbp), %rsi
	leaq	-152(%rbp), %rdi
	xorl	%edx, %edx
	callq	_ZNK4seal12KeyGenerator11generate_pkEb@PLT
	movq	-16(%rbp), %rdi
	leaq	-152(%rbp), %rsi
	callq	_ZN4seal9PublicKeyaSEOS0_
	leaq	-152(%rbp), %rdi
	callq	_ZN4seal9PublicKeyD2Ev
	addq	$160, %rsp
	popq	%rbp
	.cfi_def_cfa %rsp, 8
	retq
.Lfunc_end28:
	.size	_ZNK4seal12KeyGenerator17create_public_keyERNS_9PublicKeyE, .Lfunc_end28-_ZNK4seal12KeyGenerator17create_public_keyERNS_9PublicKeyE
	.cfi_endproc
                                        # -- End function
	.section	.text._ZN4seal9RelinKeysC2Ev,"axG",@progbits,_ZN4seal9RelinKeysC2Ev,comdat
	.weak	_ZN4seal9RelinKeysC2Ev          # -- Begin function _ZN4seal9RelinKeysC2Ev
	.p2align	4, 0x90
	.type	_ZN4seal9RelinKeysC2Ev,@function
_ZN4seal9RelinKeysC2Ev:                 # @_ZN4seal9RelinKeysC2Ev
	.cfi_startproc
# %bb.0:
	pushq	%rbp
	.cfi_def_cfa_offset 16
	.cfi_offset %rbp, -16
	movq	%rsp, %rbp
	.cfi_def_cfa_register %rbp
	subq	$16, %rsp
	movq	%rdi, -8(%rbp)
	movq	-8(%rbp), %rdi
	callq	_ZN4seal11KSwitchKeysC2Ev
	addq	$16, %rsp
	popq	%rbp
	.cfi_def_cfa %rsp, 8
	retq
.Lfunc_end29:
	.size	_ZN4seal9RelinKeysC2Ev, .Lfunc_end29-_ZN4seal9RelinKeysC2Ev
	.cfi_endproc
                                        # -- End function
	.section	.text._ZN4seal12KeyGenerator17create_relin_keysERNS_9RelinKeysE,"axG",@progbits,_ZN4seal12KeyGenerator17create_relin_keysERNS_9RelinKeysE,comdat
	.weak	_ZN4seal12KeyGenerator17create_relin_keysERNS_9RelinKeysE # -- Begin function _ZN4seal12KeyGenerator17create_relin_keysERNS_9RelinKeysE
	.p2align	4, 0x90
	.type	_ZN4seal12KeyGenerator17create_relin_keysERNS_9RelinKeysE,@function
_ZN4seal12KeyGenerator17create_relin_keysERNS_9RelinKeysE: # @_ZN4seal12KeyGenerator17create_relin_keysERNS_9RelinKeysE
	.cfi_startproc
# %bb.0:
	pushq	%rbp
	.cfi_def_cfa_offset 16
	.cfi_offset %rbp, -16
	movq	%rsp, %rbp
	.cfi_def_cfa_register %rbp
	subq	$96, %rsp
	movq	%rdi, -8(%rbp)
	movq	%rsi, -16(%rbp)
	movq	-8(%rbp), %rsi
	leaq	-88(%rbp), %rdi
	movl	$1, %edx
	xorl	%ecx, %ecx
	callq	_ZN4seal12KeyGenerator17create_relin_keysEmb@PLT
	movq	-16(%rbp), %rdi
	leaq	-88(%rbp), %rsi
	callq	_ZN4seal9RelinKeysaSEOS0_
	leaq	-88(%rbp), %rdi
	callq	_ZN4seal9RelinKeysD2Ev
	addq	$96, %rsp
	popq	%rbp
	.cfi_def_cfa %rsp, 8
	retq
.Lfunc_end30:
	.size	_ZN4seal12KeyGenerator17create_relin_keysERNS_9RelinKeysE, .Lfunc_end30-_ZN4seal12KeyGenerator17create_relin_keysERNS_9RelinKeysE
	.cfi_endproc
                                        # -- End function
	.section	.text._ZN4seal10GaloisKeysC2Ev,"axG",@progbits,_ZN4seal10GaloisKeysC2Ev,comdat
	.weak	_ZN4seal10GaloisKeysC2Ev        # -- Begin function _ZN4seal10GaloisKeysC2Ev
	.p2align	4, 0x90
	.type	_ZN4seal10GaloisKeysC2Ev,@function
_ZN4seal10GaloisKeysC2Ev:               # @_ZN4seal10GaloisKeysC2Ev
	.cfi_startproc
# %bb.0:
	pushq	%rbp
	.cfi_def_cfa_offset 16
	.cfi_offset %rbp, -16
	movq	%rsp, %rbp
	.cfi_def_cfa_register %rbp
	subq	$16, %rsp
	movq	%rdi, -8(%rbp)
	movq	-8(%rbp), %rdi
	callq	_ZN4seal11KSwitchKeysC2Ev
	addq	$16, %rsp
	popq	%rbp
	.cfi_def_cfa %rsp, 8
	retq
.Lfunc_end31:
	.size	_ZN4seal10GaloisKeysC2Ev, .Lfunc_end31-_ZN4seal10GaloisKeysC2Ev
	.cfi_endproc
                                        # -- End function
	.section	.text._ZN4seal12KeyGenerator18create_galois_keysERNS_10GaloisKeysE,"axG",@progbits,_ZN4seal12KeyGenerator18create_galois_keysERNS_10GaloisKeysE,comdat
	.weak	_ZN4seal12KeyGenerator18create_galois_keysERNS_10GaloisKeysE # -- Begin function _ZN4seal12KeyGenerator18create_galois_keysERNS_10GaloisKeysE
	.p2align	4, 0x90
	.type	_ZN4seal12KeyGenerator18create_galois_keysERNS_10GaloisKeysE,@function
_ZN4seal12KeyGenerator18create_galois_keysERNS_10GaloisKeysE: # @_ZN4seal12KeyGenerator18create_galois_keysERNS_10GaloisKeysE
.Lfunc_begin15:
	.cfi_startproc
	.cfi_personality 155, DW.ref.__gxx_personality_v0
	.cfi_lsda 27, .Lexception15
# %bb.0:
	pushq	%rbp
	.cfi_def_cfa_offset 16
	.cfi_offset %rbp, -16
	movq	%rsp, %rbp
	.cfi_def_cfa_register %rbp
	subq	$96, %rsp
	movq	%rdi, -8(%rbp)
	movq	%rsi, -16(%rbp)
	movq	-8(%rbp), %rsi
	movq	%rsi, -88(%rbp)                 # 8-byte Spill
	addq	$16, %rsi
	leaq	-56(%rbp), %rdi
	movq	%rdi, -96(%rbp)                 # 8-byte Spill
	callq	_ZNK4seal11SEALContext16key_context_dataEv
	movq	-96(%rbp), %rdi                 # 8-byte Reload
	callq	_ZNKSt19__shared_ptr_accessIKN4seal11SEALContext11ContextDataELN9__gnu_cxx12_Lock_policyE2ELb0ELb0EEptEv
	movq	%rax, %rdi
	callq	_ZNK4seal11SEALContext11ContextData11galois_toolEv
	movq	%rax, %rsi
	leaq	-40(%rbp), %rdi
	movq	%rdi, -80(%rbp)                 # 8-byte Spill
	callq	_ZNK4seal4util10GaloisTool12get_elts_allEv@PLT
	movq	-88(%rbp), %rdi                 # 8-byte Reload
	movq	-80(%rbp), %rsi                 # 8-byte Reload
	movq	-16(%rbp), %rdx
.Ltmp664:
	callq	_ZN4seal12KeyGenerator18create_galois_keysERKSt6vectorIjSaIjEERNS_10GaloisKeysE
.Ltmp665:
	jmp	.LBB32_1
.LBB32_1:
	leaq	-40(%rbp), %rdi
	callq	_ZNSt6vectorIjSaIjEED2Ev
	leaq	-56(%rbp), %rdi
	callq	_ZNSt10shared_ptrIKN4seal11SEALContext11ContextDataEED2Ev
	addq	$96, %rsp
	popq	%rbp
	.cfi_def_cfa %rsp, 8
	retq
.LBB32_2:
	.cfi_def_cfa %rbp, 16
.Ltmp666:
	movq	%rax, %rcx
	movl	%edx, %eax
	movq	%rcx, -64(%rbp)
	movl	%eax, -68(%rbp)
	leaq	-40(%rbp), %rdi
	callq	_ZNSt6vectorIjSaIjEED2Ev
	leaq	-56(%rbp), %rdi
	callq	_ZNSt10shared_ptrIKN4seal11SEALContext11ContextDataEED2Ev
# %bb.3:
	movq	-64(%rbp), %rdi
	callq	_Unwind_Resume@PLT
.Lfunc_end32:
	.size	_ZN4seal12KeyGenerator18create_galois_keysERNS_10GaloisKeysE, .Lfunc_end32-_ZN4seal12KeyGenerator18create_galois_keysERNS_10GaloisKeysE
	.cfi_endproc
	.section	.gcc_except_table._ZN4seal12KeyGenerator18create_galois_keysERNS_10GaloisKeysE,"aG",@progbits,_ZN4seal12KeyGenerator18create_galois_keysERNS_10GaloisKeysE,comdat
	.p2align	2
GCC_except_table32:
.Lexception15:
	.byte	255                             # @LPStart Encoding = omit
	.byte	255                             # @TType Encoding = omit
	.byte	1                               # Call site Encoding = uleb128
	.uleb128 .Lcst_end15-.Lcst_begin15
.Lcst_begin15:
	.uleb128 .Lfunc_begin15-.Lfunc_begin15  # >> Call Site 1 <<
	.uleb128 .Ltmp664-.Lfunc_begin15        #   Call between .Lfunc_begin15 and .Ltmp664
	.byte	0                               #     has no landing pad
	.byte	0                               #   On action: cleanup
	.uleb128 .Ltmp664-.Lfunc_begin15        # >> Call Site 2 <<
	.uleb128 .Ltmp665-.Ltmp664              #   Call between .Ltmp664 and .Ltmp665
	.uleb128 .Ltmp666-.Lfunc_begin15        #     jumps to .Ltmp666
	.byte	0                               #   On action: cleanup
	.uleb128 .Ltmp665-.Lfunc_begin15        # >> Call Site 3 <<
	.uleb128 .Lfunc_end32-.Ltmp665          #   Call between .Ltmp665 and .Lfunc_end32
	.byte	0                               #     has no landing pad
	.byte	0                               #   On action: cleanup
.Lcst_end15:
	.p2align	2
                                        # -- End function
	.section	.text._ZNK4seal11CKKSEncoder10slot_countEv,"axG",@progbits,_ZNK4seal11CKKSEncoder10slot_countEv,comdat
	.weak	_ZNK4seal11CKKSEncoder10slot_countEv # -- Begin function _ZNK4seal11CKKSEncoder10slot_countEv
	.p2align	4, 0x90
	.type	_ZNK4seal11CKKSEncoder10slot_countEv,@function
_ZNK4seal11CKKSEncoder10slot_countEv:   # @_ZNK4seal11CKKSEncoder10slot_countEv
	.cfi_startproc
# %bb.0:
	pushq	%rbp
	.cfi_def_cfa_offset 16
	.cfi_offset %rbp, -16
	movq	%rsp, %rbp
	.cfi_def_cfa_register %rbp
	movq	%rdi, -8(%rbp)
	movq	-8(%rbp), %rax
	movq	192(%rax), %rax
	popq	%rbp
	.cfi_def_cfa %rsp, 8
	retq
.Lfunc_end33:
	.size	_ZNK4seal11CKKSEncoder10slot_countEv, .Lfunc_end33-_ZNK4seal11CKKSEncoder10slot_countEv
	.cfi_endproc
                                        # -- End function
	.section	.text._ZNSt6vectorIdSaIdEEC2Ev,"axG",@progbits,_ZNSt6vectorIdSaIdEEC2Ev,comdat
	.weak	_ZNSt6vectorIdSaIdEEC2Ev        # -- Begin function _ZNSt6vectorIdSaIdEEC2Ev
	.p2align	4, 0x90
	.type	_ZNSt6vectorIdSaIdEEC2Ev,@function
_ZNSt6vectorIdSaIdEEC2Ev:               # @_ZNSt6vectorIdSaIdEEC2Ev
	.cfi_startproc
# %bb.0:
	pushq	%rbp
	.cfi_def_cfa_offset 16
	.cfi_offset %rbp, -16
	movq	%rsp, %rbp
	.cfi_def_cfa_register %rbp
	subq	$16, %rsp
	movq	%rdi, -8(%rbp)
	movq	-8(%rbp), %rdi
	callq	_ZNSt12_Vector_baseIdSaIdEEC2Ev
	addq	$16, %rsp
	popq	%rbp
	.cfi_def_cfa %rsp, 8
	retq
.Lfunc_end34:
	.size	_ZNSt6vectorIdSaIdEEC2Ev, .Lfunc_end34-_ZNSt6vectorIdSaIdEEC2Ev
	.cfi_endproc
                                        # -- End function
	.section	.text._ZNSt6vectorIdSaIdEE7reserveEm,"axG",@progbits,_ZNSt6vectorIdSaIdEE7reserveEm,comdat
	.weak	_ZNSt6vectorIdSaIdEE7reserveEm  # -- Begin function _ZNSt6vectorIdSaIdEE7reserveEm
	.p2align	4, 0x90
	.type	_ZNSt6vectorIdSaIdEE7reserveEm,@function
_ZNSt6vectorIdSaIdEE7reserveEm:         # @_ZNSt6vectorIdSaIdEE7reserveEm
	.cfi_startproc
# %bb.0:
	pushq	%rbp
	.cfi_def_cfa_offset 16
	.cfi_offset %rbp, -16
	movq	%rsp, %rbp
	.cfi_def_cfa_register %rbp
	subq	$80, %rsp
	movq	%rdi, -8(%rbp)
	movq	%rsi, -16(%rbp)
	movq	-8(%rbp), %rdi
	movq	%rdi, -48(%rbp)                 # 8-byte Spill
	movq	-16(%rbp), %rax
	movq	%rax, -40(%rbp)                 # 8-byte Spill
	callq	_ZNKSt6vectorIdSaIdEE8max_sizeEv
	movq	%rax, %rcx
	movq	-40(%rbp), %rax                 # 8-byte Reload
	cmpq	%rcx, %rax
	jbe	.LBB35_2
# %bb.1:
	leaq	.L.str.66(%rip), %rdi
	callq	_ZSt20__throw_length_errorPKc@PLT
.LBB35_2:
	movq	-48(%rbp), %rdi                 # 8-byte Reload
	callq	_ZNKSt6vectorIdSaIdEE8capacityEv
	cmpq	-16(%rbp), %rax
	jae	.LBB35_4
# %bb.3:
	movq	-48(%rbp), %rdi                 # 8-byte Reload
	callq	_ZNKSt6vectorIdSaIdEE4sizeEv
	movq	-48(%rbp), %rdi                 # 8-byte Reload
	movq	%rax, -24(%rbp)
	movq	-16(%rbp), %rsi
	callq	_ZNSt12_Vector_baseIdSaIdEE11_M_allocateEm
	movq	-48(%rbp), %rdi                 # 8-byte Reload
	movq	%rax, -32(%rbp)
	movq	(%rdi), %rax
	movq	%rax, -72(%rbp)                 # 8-byte Spill
	movq	8(%rdi), %rax
	movq	%rax, -64(%rbp)                 # 8-byte Spill
	movq	-32(%rbp), %rax
	movq	%rax, -56(%rbp)                 # 8-byte Spill
	callq	_ZNSt12_Vector_baseIdSaIdEE19_M_get_Tp_allocatorEv
	movq	-72(%rbp), %rdi                 # 8-byte Reload
	movq	-64(%rbp), %rsi                 # 8-byte Reload
	movq	-56(%rbp), %rdx                 # 8-byte Reload
	movq	%rax, %rcx
	callq	_ZNSt6vectorIdSaIdEE11_S_relocateEPdS2_S2_RS0_
                                        # kill: def $rcx killed $rax
	movq	-48(%rbp), %rax                 # 8-byte Reload
	movq	%rax, %rdi
	movq	(%rax), %rsi
	movq	16(%rax), %rdx
	movq	(%rax), %rax
	subq	%rax, %rdx
	sarq	$3, %rdx
	callq	_ZNSt12_Vector_baseIdSaIdEE13_M_deallocateEPdm
	movq	-48(%rbp), %rax                 # 8-byte Reload
	movq	-32(%rbp), %rcx
	movq	%rcx, (%rax)
	movq	-32(%rbp), %rcx
	movq	-24(%rbp), %rdx
	shlq	$3, %rdx
	addq	%rdx, %rcx
	movq	%rcx, 8(%rax)
	movq	(%rax), %rcx
	movq	-16(%rbp), %rdx
	shlq	$3, %rdx
	addq	%rdx, %rcx
	movq	%rcx, 16(%rax)
.LBB35_4:
	addq	$80, %rsp
	popq	%rbp
	.cfi_def_cfa %rsp, 8
	retq
.Lfunc_end35:
	.size	_ZNSt6vectorIdSaIdEE7reserveEm, .Lfunc_end35-_ZNSt6vectorIdSaIdEE7reserveEm
	.cfi_endproc
                                        # -- End function
	.section	.text._ZNSt6vectorIdSaIdEE9push_backERKd,"axG",@progbits,_ZNSt6vectorIdSaIdEE9push_backERKd,comdat
	.weak	_ZNSt6vectorIdSaIdEE9push_backERKd # -- Begin function _ZNSt6vectorIdSaIdEE9push_backERKd
	.p2align	4, 0x90
	.type	_ZNSt6vectorIdSaIdEE9push_backERKd,@function
_ZNSt6vectorIdSaIdEE9push_backERKd:     # @_ZNSt6vectorIdSaIdEE9push_backERKd
	.cfi_startproc
# %bb.0:
	pushq	%rbp
	.cfi_def_cfa_offset 16
	.cfi_offset %rbp, -16
	movq	%rsp, %rbp
	.cfi_def_cfa_register %rbp
	subq	$32, %rsp
	movq	%rdi, -8(%rbp)
	movq	%rsi, -16(%rbp)
	movq	-8(%rbp), %rcx
	movq	%rcx, -32(%rbp)                 # 8-byte Spill
	movq	8(%rcx), %rax
	cmpq	16(%rcx), %rax
	je	.LBB36_2
# %bb.1:
	movq	-32(%rbp), %rax                 # 8-byte Reload
	movq	%rax, %rdi
	movq	8(%rax), %rsi
	movq	-16(%rbp), %rdx
	callq	_ZNSt16allocator_traitsISaIdEE9constructIdJRKdEEEvRS0_PT_DpOT0_
	movq	-32(%rbp), %rax                 # 8-byte Reload
	movq	8(%rax), %rcx
	addq	$8, %rcx
	movq	%rcx, 8(%rax)
	jmp	.LBB36_3
.LBB36_2:
	movq	-32(%rbp), %rdi                 # 8-byte Reload
	callq	_ZNSt6vectorIdSaIdEE3endEv
	movq	-32(%rbp), %rdi                 # 8-byte Reload
	movq	%rax, -24(%rbp)
	movq	-16(%rbp), %rdx
	movq	-24(%rbp), %rsi
	callq	_ZNSt6vectorIdSaIdEE17_M_realloc_insertIJRKdEEEvN9__gnu_cxx17__normal_iteratorIPdS1_EEDpOT_
.LBB36_3:
	addq	$32, %rsp
	popq	%rbp
	.cfi_def_cfa %rsp, 8
	retq
.Lfunc_end36:
	.size	_ZNSt6vectorIdSaIdEE9push_backERKd, .Lfunc_end36-_ZNSt6vectorIdSaIdEE9push_backERKd
	.cfi_endproc
                                        # -- End function
	.section	.text._Z12print_vectorIdEvSt6vectorIT_SaIS1_EEmi,"axG",@progbits,_Z12print_vectorIdEvSt6vectorIT_SaIS1_EEmi,comdat
	.weak	_Z12print_vectorIdEvSt6vectorIT_SaIS1_EEmi # -- Begin function _Z12print_vectorIdEvSt6vectorIT_SaIS1_EEmi
	.p2align	4, 0x90
	.type	_Z12print_vectorIdEvSt6vectorIT_SaIS1_EEmi,@function
_Z12print_vectorIdEvSt6vectorIT_SaIS1_EEmi: # @_Z12print_vectorIdEvSt6vectorIT_SaIS1_EEmi
.Lfunc_begin16:
	.cfi_startproc
	.cfi_personality 155, DW.ref.__gxx_personality_v0
	.cfi_lsda 27, .Lexception16
# %bb.0:
	pushq	%rbp
	.cfi_def_cfa_offset 16
	.cfi_offset %rbp, -16
	movq	%rsp, %rbp
	.cfi_def_cfa_register %rbp
	subq	$432, %rsp                      # imm = 0x1B0
	movq	%rdi, -368(%rbp)                # 8-byte Spill
	movq	%rsi, -8(%rbp)
	movl	%edx, -12(%rbp)
	xorl	%eax, %eax
	movl	%eax, %esi
	leaq	-280(%rbp), %rdi
	movq	%rdi, -360(%rbp)                # 8-byte Spill
	callq	_ZNSt9basic_iosIcSt11char_traitsIcEEC1EPSt15basic_streambufIcS1_E@PLT
	movq	-360(%rbp), %rdi                # 8-byte Reload
	movq	_ZSt4cout@GOTPCREL(%rip), %rsi
	movq	(%rsi), %rax
	movq	-24(%rax), %rax
	addq	%rax, %rsi
.Ltmp667:
	callq	_ZNSt9basic_iosIcSt11char_traitsIcEE7copyfmtERKS2_@PLT
.Ltmp668:
	jmp	.LBB37_1
.LBB37_1:
	movq	-368(%rbp), %rdi                # 8-byte Reload
	callq	_ZNKSt6vectorIdSaIdEE4sizeEv
	movq	%rax, -304(%rbp)
.Ltmp669:
	movq	_ZSt4cout@GOTPCREL(%rip), %rdi
	leaq	_ZSt5fixedRSt8ios_base(%rip), %rsi
	callq	_ZNSolsEPFRSt8ios_baseS0_E@PLT
.Ltmp670:
	movq	%rax, -376(%rbp)                # 8-byte Spill
	jmp	.LBB37_2
.LBB37_2:
	movl	-12(%rbp), %edi
	callq	_ZSt12setprecisioni
	movq	-376(%rbp), %rdi                # 8-byte Reload
	movl	%eax, -312(%rbp)
	movl	-312(%rbp), %esi
.Ltmp671:
	callq	_ZStlsIcSt11char_traitsIcEERSt13basic_ostreamIT_T0_ES6_St13_Setprecision@PLT
.Ltmp672:
	jmp	.LBB37_3
.LBB37_3:
.Ltmp673:
	movq	_ZSt4cout@GOTPCREL(%rip), %rdi
	movq	_ZSt4endlIcSt11char_traitsIcEERSt13basic_ostreamIT_T0_ES6_@GOTPCREL(%rip), %rsi
	callq	_ZNSolsEPFRSoS_E@PLT
.Ltmp674:
	jmp	.LBB37_4
.LBB37_4:
	movq	-304(%rbp), %rax
	movq	-8(%rbp), %rcx
	shlq	$1, %rcx
	cmpq	%rcx, %rax
	ja	.LBB37_15
# %bb.5:
.Ltmp693:
	movq	_ZSt4cout@GOTPCREL(%rip), %rdi
	leaq	.L.str.68(%rip), %rsi
	callq	_ZStlsISt11char_traitsIcEERSt13basic_ostreamIcT_ES5_PKc@PLT
.Ltmp694:
	jmp	.LBB37_6
.LBB37_6:
	movq	$0, -320(%rbp)
.LBB37_7:                               # =>This Inner Loop Header: Depth=1
	movq	-320(%rbp), %rax
	cmpq	-304(%rbp), %rax
	jae	.LBB37_14
# %bb.8:                                #   in Loop: Header=BB37_7 Depth=1
.Ltmp699:
	movq	_ZSt4cout@GOTPCREL(%rip), %rdi
	leaq	.L.str.20(%rip), %rsi
	callq	_ZStlsISt11char_traitsIcEERSt13basic_ostreamIcT_ES5_PKc@PLT
.Ltmp700:
	movq	%rax, -384(%rbp)                # 8-byte Spill
	jmp	.LBB37_9
.LBB37_9:                               #   in Loop: Header=BB37_7 Depth=1
	movq	-368(%rbp), %rdi                # 8-byte Reload
	movq	-320(%rbp), %rsi
	callq	_ZNSt6vectorIdSaIdEEixEm
	movq	-384(%rbp), %rdi                # 8-byte Reload
	movsd	(%rax), %xmm0                   # xmm0 = mem[0],zero
.Ltmp701:
	callq	_ZNSolsEd@PLT
.Ltmp702:
	movq	%rax, -392(%rbp)                # 8-byte Spill
	jmp	.LBB37_10
.LBB37_10:                              #   in Loop: Header=BB37_7 Depth=1
	movq	-392(%rbp), %rdi                # 8-byte Reload
	movq	-320(%rbp), %rax
	movq	-304(%rbp), %rcx
	addq	$-1, %rcx
	subq	%rcx, %rax
	leaq	.L.str.69(%rip), %rax
	leaq	.L.str.70(%rip), %rsi
	cmovneq	%rax, %rsi
.Ltmp703:
	callq	_ZStlsISt11char_traitsIcEERSt13basic_ostreamIcT_ES5_PKc@PLT
.Ltmp704:
	jmp	.LBB37_11
.LBB37_11:                              #   in Loop: Header=BB37_7 Depth=1
	jmp	.LBB37_12
.LBB37_12:                              #   in Loop: Header=BB37_7 Depth=1
	movq	-320(%rbp), %rax
	addq	$1, %rax
	movq	%rax, -320(%rbp)
	jmp	.LBB37_7
.LBB37_13:
.Ltmp705:
	movq	%rax, %rcx
	movl	%edx, %eax
	movq	%rcx, -288(%rbp)
	movl	%eax, -292(%rbp)
	leaq	-280(%rbp), %rdi
	callq	_ZNSt9basic_iosIcSt11char_traitsIcEED1Ev@PLT
	jmp	.LBB37_38
.LBB37_14:
	jmp	.LBB37_35
.LBB37_15:
	movq	-368(%rbp), %rdi                # 8-byte Reload
	callq	_ZNKSt6vectorIdSaIdEE4sizeEv
	movq	%rax, -328(%rbp)
	movq	-8(%rbp), %rax
	addq	%rax, %rax
	movq	%rax, -336(%rbp)
	leaq	-328(%rbp), %rdi
	leaq	-336(%rbp), %rsi
	callq	_ZSt3maxImERKT_S2_S2_
	movq	-368(%rbp), %rdi                # 8-byte Reload
	movq	(%rax), %rsi
.Ltmp675:
	callq	_ZNSt6vectorIdSaIdEE6resizeEm
.Ltmp676:
	jmp	.LBB37_16
.LBB37_16:
.Ltmp677:
	movq	_ZSt4cout@GOTPCREL(%rip), %rdi
	leaq	.L.str.68(%rip), %rsi
	callq	_ZStlsISt11char_traitsIcEERSt13basic_ostreamIcT_ES5_PKc@PLT
.Ltmp678:
	jmp	.LBB37_17
.LBB37_17:
	movq	$0, -344(%rbp)
.LBB37_18:                              # =>This Inner Loop Header: Depth=1
	movq	-344(%rbp), %rax
	cmpq	-8(%rbp), %rax
	jae	.LBB37_24
# %bb.19:                               #   in Loop: Header=BB37_18 Depth=1
.Ltmp687:
	movq	_ZSt4cout@GOTPCREL(%rip), %rdi
	leaq	.L.str.20(%rip), %rsi
	callq	_ZStlsISt11char_traitsIcEERSt13basic_ostreamIcT_ES5_PKc@PLT
.Ltmp688:
	movq	%rax, -400(%rbp)                # 8-byte Spill
	jmp	.LBB37_20
.LBB37_20:                              #   in Loop: Header=BB37_18 Depth=1
	movq	-368(%rbp), %rdi                # 8-byte Reload
	movq	-344(%rbp), %rsi
	callq	_ZNSt6vectorIdSaIdEEixEm
	movq	-400(%rbp), %rdi                # 8-byte Reload
	movsd	(%rax), %xmm0                   # xmm0 = mem[0],zero
.Ltmp689:
	callq	_ZNSolsEd@PLT
.Ltmp690:
	movq	%rax, -408(%rbp)                # 8-byte Spill
	jmp	.LBB37_21
.LBB37_21:                              #   in Loop: Header=BB37_18 Depth=1
.Ltmp691:
	movq	-408(%rbp), %rdi                # 8-byte Reload
	leaq	.L.str.69(%rip), %rsi
	callq	_ZStlsISt11char_traitsIcEERSt13basic_ostreamIcT_ES5_PKc@PLT
.Ltmp692:
	jmp	.LBB37_22
.LBB37_22:                              #   in Loop: Header=BB37_18 Depth=1
	jmp	.LBB37_23
.LBB37_23:                              #   in Loop: Header=BB37_18 Depth=1
	movq	-344(%rbp), %rax
	addq	$1, %rax
	movq	%rax, -344(%rbp)
	jmp	.LBB37_18
.LBB37_24:
	movq	-368(%rbp), %rdi                # 8-byte Reload
	callq	_ZNKSt6vectorIdSaIdEE4sizeEv
	movq	-8(%rbp), %rcx
	shlq	$1, %rcx
	cmpq	%rcx, %rax
	jbe	.LBB37_27
# %bb.25:
.Ltmp679:
	movq	_ZSt4cout@GOTPCREL(%rip), %rdi
	leaq	.L.str.71(%rip), %rsi
	callq	_ZStlsISt11char_traitsIcEERSt13basic_ostreamIcT_ES5_PKc@PLT
.Ltmp680:
	jmp	.LBB37_26
.LBB37_26:
	jmp	.LBB37_27
.LBB37_27:
	movq	-304(%rbp), %rax
	subq	-8(%rbp), %rax
	movq	%rax, -352(%rbp)
.LBB37_28:                              # =>This Inner Loop Header: Depth=1
	movq	-352(%rbp), %rax
	cmpq	-304(%rbp), %rax
	jae	.LBB37_34
# %bb.29:                               #   in Loop: Header=BB37_28 Depth=1
.Ltmp681:
	movq	_ZSt4cout@GOTPCREL(%rip), %rdi
	leaq	.L.str.20(%rip), %rsi
	callq	_ZStlsISt11char_traitsIcEERSt13basic_ostreamIcT_ES5_PKc@PLT
.Ltmp682:
	movq	%rax, -416(%rbp)                # 8-byte Spill
	jmp	.LBB37_30
.LBB37_30:                              #   in Loop: Header=BB37_28 Depth=1
	movq	-368(%rbp), %rdi                # 8-byte Reload
	movq	-352(%rbp), %rsi
	callq	_ZNSt6vectorIdSaIdEEixEm
	movq	-416(%rbp), %rdi                # 8-byte Reload
	movsd	(%rax), %xmm0                   # xmm0 = mem[0],zero
.Ltmp683:
	callq	_ZNSolsEd@PLT
.Ltmp684:
	movq	%rax, -424(%rbp)                # 8-byte Spill
	jmp	.LBB37_31
.LBB37_31:                              #   in Loop: Header=BB37_28 Depth=1
	movq	-424(%rbp), %rdi                # 8-byte Reload
	movq	-352(%rbp), %rax
	movq	-304(%rbp), %rcx
	addq	$-1, %rcx
	subq	%rcx, %rax
	leaq	.L.str.69(%rip), %rax
	leaq	.L.str.70(%rip), %rsi
	cmovneq	%rax, %rsi
.Ltmp685:
	callq	_ZStlsISt11char_traitsIcEERSt13basic_ostreamIcT_ES5_PKc@PLT
.Ltmp686:
	jmp	.LBB37_32
.LBB37_32:                              #   in Loop: Header=BB37_28 Depth=1
	jmp	.LBB37_33
.LBB37_33:                              #   in Loop: Header=BB37_28 Depth=1
	movq	-352(%rbp), %rax
	addq	$1, %rax
	movq	%rax, -352(%rbp)
	jmp	.LBB37_28
.LBB37_34:
	jmp	.LBB37_35
.LBB37_35:
.Ltmp695:
	movq	_ZSt4cout@GOTPCREL(%rip), %rdi
	movq	_ZSt4endlIcSt11char_traitsIcEERSt13basic_ostreamIT_T0_ES6_@GOTPCREL(%rip), %rsi
	callq	_ZNSolsEPFRSoS_E@PLT
.Ltmp696:
	jmp	.LBB37_36
.LBB37_36:
	movq	_ZSt4cout@GOTPCREL(%rip), %rdi
	movq	(%rdi), %rax
	movq	-24(%rax), %rax
	addq	%rax, %rdi
.Ltmp697:
	leaq	-280(%rbp), %rsi
	callq	_ZNSt9basic_iosIcSt11char_traitsIcEE7copyfmtERKS2_@PLT
.Ltmp698:
	jmp	.LBB37_37
.LBB37_37:
	leaq	-280(%rbp), %rdi
	callq	_ZNSt9basic_iosIcSt11char_traitsIcEED1Ev@PLT
	addq	$432, %rsp                      # imm = 0x1B0
	popq	%rbp
	.cfi_def_cfa %rsp, 8
	retq
.LBB37_38:
	.cfi_def_cfa %rbp, 16
	movq	-288(%rbp), %rdi
	callq	_Unwind_Resume@PLT
.Lfunc_end37:
	.size	_Z12print_vectorIdEvSt6vectorIT_SaIS1_EEmi, .Lfunc_end37-_Z12print_vectorIdEvSt6vectorIT_SaIS1_EEmi
	.cfi_endproc
	.section	.gcc_except_table._Z12print_vectorIdEvSt6vectorIT_SaIS1_EEmi,"aG",@progbits,_Z12print_vectorIdEvSt6vectorIT_SaIS1_EEmi,comdat
	.p2align	2
GCC_except_table37:
.Lexception16:
	.byte	255                             # @LPStart Encoding = omit
	.byte	255                             # @TType Encoding = omit
	.byte	1                               # Call site Encoding = uleb128
	.uleb128 .Lcst_end16-.Lcst_begin16
.Lcst_begin16:
	.uleb128 .Lfunc_begin16-.Lfunc_begin16  # >> Call Site 1 <<
	.uleb128 .Ltmp667-.Lfunc_begin16        #   Call between .Lfunc_begin16 and .Ltmp667
	.byte	0                               #     has no landing pad
	.byte	0                               #   On action: cleanup
	.uleb128 .Ltmp667-.Lfunc_begin16        # >> Call Site 2 <<
	.uleb128 .Ltmp698-.Ltmp667              #   Call between .Ltmp667 and .Ltmp698
	.uleb128 .Ltmp705-.Lfunc_begin16        #     jumps to .Ltmp705
	.byte	0                               #   On action: cleanup
	.uleb128 .Ltmp698-.Lfunc_begin16        # >> Call Site 3 <<
	.uleb128 .Lfunc_end37-.Ltmp698          #   Call between .Ltmp698 and .Lfunc_end37
	.byte	0                               #     has no landing pad
	.byte	0                               #   On action: cleanup
.Lcst_end16:
	.p2align	2
                                        # -- End function
	.section	.text._ZNSt6vectorIdSaIdEEC2ERKS1_,"axG",@progbits,_ZNSt6vectorIdSaIdEEC2ERKS1_,comdat
	.weak	_ZNSt6vectorIdSaIdEEC2ERKS1_    # -- Begin function _ZNSt6vectorIdSaIdEEC2ERKS1_
	.p2align	4, 0x90
	.type	_ZNSt6vectorIdSaIdEEC2ERKS1_,@function
_ZNSt6vectorIdSaIdEEC2ERKS1_:           # @_ZNSt6vectorIdSaIdEEC2ERKS1_
.Lfunc_begin17:
	.cfi_startproc
	.cfi_personality 155, DW.ref.__gxx_personality_v0
	.cfi_lsda 27, .Lexception17
# %bb.0:
	pushq	%rbp
	.cfi_def_cfa_offset 16
	.cfi_offset %rbp, -16
	movq	%rsp, %rbp
	.cfi_def_cfa_register %rbp
	subq	$96, %rsp
	movq	%rdi, -8(%rbp)
	movq	%rsi, -16(%rbp)
	movq	-8(%rbp), %rax
	movq	%rax, -80(%rbp)                 # 8-byte Spill
	movq	-16(%rbp), %rdi
	callq	_ZNKSt6vectorIdSaIdEE4sizeEv
	movq	%rax, -72(%rbp)                 # 8-byte Spill
	movq	-16(%rbp), %rdi
	callq	_ZNKSt12_Vector_baseIdSaIdEE19_M_get_Tp_allocatorEv
	movq	%rax, %rsi
	leaq	-24(%rbp), %rdi
	movq	%rdi, -64(%rbp)                 # 8-byte Spill
	callq	_ZN9__gnu_cxx14__alloc_traitsISaIdEdE17_S_select_on_copyERKS1_
	movq	-80(%rbp), %rdi                 # 8-byte Reload
	movq	-72(%rbp), %rsi                 # 8-byte Reload
	movq	-64(%rbp), %rdx                 # 8-byte Reload
.Ltmp706:
	callq	_ZNSt12_Vector_baseIdSaIdEEC2EmRKS0_
.Ltmp707:
	jmp	.LBB38_1
.LBB38_1:
	leaq	-24(%rbp), %rdi
	callq	_ZNSaIdED2Ev
	movq	-16(%rbp), %rdi
	callq	_ZNKSt6vectorIdSaIdEE5beginEv
	movq	%rax, -48(%rbp)
	movq	-16(%rbp), %rdi
	callq	_ZNKSt6vectorIdSaIdEE3endEv
	movq	-80(%rbp), %rdi                 # 8-byte Reload
	movq	%rax, -56(%rbp)
	movq	(%rdi), %rax
	movq	%rax, -96(%rbp)                 # 8-byte Spill
	callq	_ZNSt12_Vector_baseIdSaIdEE19_M_get_Tp_allocatorEv
	movq	-96(%rbp), %rdx                 # 8-byte Reload
	movq	%rax, %rcx
	movq	-48(%rbp), %rdi
	movq	-56(%rbp), %rsi
.Ltmp709:
	callq	_ZSt22__uninitialized_copy_aIN9__gnu_cxx17__normal_iteratorIPKdSt6vectorIdSaIdEEEEPddET0_T_SA_S9_RSaIT1_E
.Ltmp710:
	movq	%rax, -88(%rbp)                 # 8-byte Spill
	jmp	.LBB38_2
.LBB38_2:
	movq	-80(%rbp), %rax                 # 8-byte Reload
	movq	-88(%rbp), %rcx                 # 8-byte Reload
	movq	%rcx, 8(%rax)
	addq	$96, %rsp
	popq	%rbp
	.cfi_def_cfa %rsp, 8
	retq
.LBB38_3:
	.cfi_def_cfa %rbp, 16
.Ltmp708:
	movq	%rax, %rcx
	movl	%edx, %eax
	movq	%rcx, -32(%rbp)
	movl	%eax, -36(%rbp)
	leaq	-24(%rbp), %rdi
	callq	_ZNSaIdED2Ev
	jmp	.LBB38_5
.LBB38_4:
.Ltmp711:
	movq	-80(%rbp), %rdi                 # 8-byte Reload
	movq	%rax, %rcx
	movl	%edx, %eax
	movq	%rcx, -32(%rbp)
	movl	%eax, -36(%rbp)
	callq	_ZNSt12_Vector_baseIdSaIdEED2Ev
.LBB38_5:
	movq	-32(%rbp), %rdi
	callq	_Unwind_Resume@PLT
.Lfunc_end38:
	.size	_ZNSt6vectorIdSaIdEEC2ERKS1_, .Lfunc_end38-_ZNSt6vectorIdSaIdEEC2ERKS1_
	.cfi_endproc
	.section	.gcc_except_table._ZNSt6vectorIdSaIdEEC2ERKS1_,"aG",@progbits,_ZNSt6vectorIdSaIdEEC2ERKS1_,comdat
	.p2align	2
GCC_except_table38:
.Lexception17:
	.byte	255                             # @LPStart Encoding = omit
	.byte	255                             # @TType Encoding = omit
	.byte	1                               # Call site Encoding = uleb128
	.uleb128 .Lcst_end17-.Lcst_begin17
.Lcst_begin17:
	.uleb128 .Lfunc_begin17-.Lfunc_begin17  # >> Call Site 1 <<
	.uleb128 .Ltmp706-.Lfunc_begin17        #   Call between .Lfunc_begin17 and .Ltmp706
	.byte	0                               #     has no landing pad
	.byte	0                               #   On action: cleanup
	.uleb128 .Ltmp706-.Lfunc_begin17        # >> Call Site 2 <<
	.uleb128 .Ltmp707-.Ltmp706              #   Call between .Ltmp706 and .Ltmp707
	.uleb128 .Ltmp708-.Lfunc_begin17        #     jumps to .Ltmp708
	.byte	0                               #   On action: cleanup
	.uleb128 .Ltmp709-.Lfunc_begin17        # >> Call Site 3 <<
	.uleb128 .Ltmp710-.Ltmp709              #   Call between .Ltmp709 and .Ltmp710
	.uleb128 .Ltmp711-.Lfunc_begin17        #     jumps to .Ltmp711
	.byte	0                               #   On action: cleanup
	.uleb128 .Ltmp710-.Lfunc_begin17        # >> Call Site 4 <<
	.uleb128 .Lfunc_end38-.Ltmp710          #   Call between .Ltmp710 and .Lfunc_end38
	.byte	0                               #     has no landing pad
	.byte	0                               #   On action: cleanup
.Lcst_end17:
	.p2align	2
                                        # -- End function
	.section	.text._ZNSt6vectorIdSaIdEED2Ev,"axG",@progbits,_ZNSt6vectorIdSaIdEED2Ev,comdat
	.weak	_ZNSt6vectorIdSaIdEED2Ev        # -- Begin function _ZNSt6vectorIdSaIdEED2Ev
	.p2align	4, 0x90
	.type	_ZNSt6vectorIdSaIdEED2Ev,@function
_ZNSt6vectorIdSaIdEED2Ev:               # @_ZNSt6vectorIdSaIdEED2Ev
.Lfunc_begin18:
	.cfi_startproc
	.cfi_personality 155, DW.ref.__gxx_personality_v0
	.cfi_lsda 27, .Lexception18
# %bb.0:
	pushq	%rbp
	.cfi_def_cfa_offset 16
	.cfi_offset %rbp, -16
	movq	%rsp, %rbp
	.cfi_def_cfa_register %rbp
	subq	$48, %rsp
	movq	%rdi, -8(%rbp)
	movq	-8(%rbp), %rdi
	movq	%rdi, -48(%rbp)                 # 8-byte Spill
	movq	(%rdi), %rax
	movq	%rax, -40(%rbp)                 # 8-byte Spill
	movq	8(%rdi), %rax
	movq	%rax, -32(%rbp)                 # 8-byte Spill
	callq	_ZNSt12_Vector_baseIdSaIdEE19_M_get_Tp_allocatorEv
	movq	-40(%rbp), %rdi                 # 8-byte Reload
	movq	-32(%rbp), %rsi                 # 8-byte Reload
	movq	%rax, %rdx
.Ltmp712:
	callq	_ZSt8_DestroyIPddEvT_S1_RSaIT0_E
.Ltmp713:
	jmp	.LBB39_1
.LBB39_1:
	movq	-48(%rbp), %rdi                 # 8-byte Reload
	callq	_ZNSt12_Vector_baseIdSaIdEED2Ev
	addq	$48, %rsp
	popq	%rbp
	.cfi_def_cfa %rsp, 8
	retq
.LBB39_2:
	.cfi_def_cfa %rbp, 16
.Ltmp714:
	movq	-48(%rbp), %rdi                 # 8-byte Reload
	movq	%rax, %rcx
	movl	%edx, %eax
	movq	%rcx, -16(%rbp)
	movl	%eax, -20(%rbp)
	callq	_ZNSt12_Vector_baseIdSaIdEED2Ev
# %bb.3:
	movq	-16(%rbp), %rdi
	callq	__clang_call_terminate
.Lfunc_end39:
	.size	_ZNSt6vectorIdSaIdEED2Ev, .Lfunc_end39-_ZNSt6vectorIdSaIdEED2Ev
	.cfi_endproc
	.section	.gcc_except_table._ZNSt6vectorIdSaIdEED2Ev,"aG",@progbits,_ZNSt6vectorIdSaIdEED2Ev,comdat
	.p2align	2
GCC_except_table39:
.Lexception18:
	.byte	255                             # @LPStart Encoding = omit
	.byte	155                             # @TType Encoding = indirect pcrel sdata4
	.uleb128 .Lttbase2-.Lttbaseref2
.Lttbaseref2:
	.byte	1                               # Call site Encoding = uleb128
	.uleb128 .Lcst_end18-.Lcst_begin18
.Lcst_begin18:
	.uleb128 .Ltmp712-.Lfunc_begin18        # >> Call Site 1 <<
	.uleb128 .Ltmp713-.Ltmp712              #   Call between .Ltmp712 and .Ltmp713
	.uleb128 .Ltmp714-.Lfunc_begin18        #     jumps to .Ltmp714
	.byte	1                               #   On action: 1
.Lcst_end18:
	.byte	1                               # >> Action Record 1 <<
                                        #   Catch TypeInfo 1
	.byte	0                               #   No further actions
	.p2align	2
                                        # >> Catch TypeInfos <<
	.long	0                               # TypeInfo 1
.Lttbase2:
	.p2align	2
                                        # -- End function
	.section	.text._ZN4seal13MemoryManager7GetPoolEv,"axG",@progbits,_ZN4seal13MemoryManager7GetPoolEv,comdat
	.weak	_ZN4seal13MemoryManager7GetPoolEv # -- Begin function _ZN4seal13MemoryManager7GetPoolEv
	.p2align	4, 0x90
	.type	_ZN4seal13MemoryManager7GetPoolEv,@function
_ZN4seal13MemoryManager7GetPoolEv:      # @_ZN4seal13MemoryManager7GetPoolEv
	.cfi_startproc
# %bb.0:
	pushq	%rbp
	.cfi_def_cfa_offset 16
	.cfi_offset %rbp, -16
	movq	%rsp, %rbp
	.cfi_def_cfa_register %rbp
	subq	$16, %rsp
	movq	%rdi, %rax
	movq	%rax, -16(%rbp)                 # 8-byte Spill
	movq	%rdi, %rax
	movq	%rax, -8(%rbp)
	xorl	%eax, %eax
	movl	%eax, %esi
	callq	_ZN4seal13MemoryManager7GetPoolIJEEENS_16MemoryPoolHandleEmDpOT_
	movq	-16(%rbp), %rax                 # 8-byte Reload
	addq	$16, %rsp
	popq	%rbp
	.cfi_def_cfa %rsp, 8
	retq
.Lfunc_end40:
	.size	_ZN4seal13MemoryManager7GetPoolEv, .Lfunc_end40-_ZN4seal13MemoryManager7GetPoolEv
	.cfi_endproc
                                        # -- End function
	.section	.text._ZN4seal9PlaintextC2ENS_16MemoryPoolHandleE,"axG",@progbits,_ZN4seal9PlaintextC2ENS_16MemoryPoolHandleE,comdat
	.weak	_ZN4seal9PlaintextC2ENS_16MemoryPoolHandleE # -- Begin function _ZN4seal9PlaintextC2ENS_16MemoryPoolHandleE
	.p2align	4, 0x90
	.type	_ZN4seal9PlaintextC2ENS_16MemoryPoolHandleE,@function
_ZN4seal9PlaintextC2ENS_16MemoryPoolHandleE: # @_ZN4seal9PlaintextC2ENS_16MemoryPoolHandleE
.Lfunc_begin19:
	.cfi_startproc
	.cfi_personality 155, DW.ref.__gxx_personality_v0
	.cfi_lsda 27, .Lexception19
# %bb.0:
	pushq	%rbp
	.cfi_def_cfa_offset 16
	.cfi_offset %rbp, -16
	movq	%rsp, %rbp
	.cfi_def_cfa_register %rbp
	subq	$64, %rsp
	movq	%rsi, -64(%rbp)                 # 8-byte Spill
	movq	%rdi, %rax
	movq	-64(%rbp), %rdi                 # 8-byte Reload
	movq	%rax, -8(%rbp)
	movq	-8(%rbp), %rax
	movq	_ZN4seal13parms_id_zeroE@GOTPCREL(%rip), %rcx
	movups	(%rcx), %xmm0
	movups	16(%rcx), %xmm1
	movups	%xmm1, 16(%rax)
	movups	%xmm0, (%rax)
	movq	$0, 32(%rax)
	movabsq	$4607182418800017408, %rcx      # imm = 0x3FF0000000000000
	movq	%rcx, 40(%rax)
	addq	$48, %rax
	movq	%rax, -56(%rbp)                 # 8-byte Spill
	callq	_ZSt4moveIRN4seal16MemoryPoolHandleEEONSt16remove_referenceIT_E4typeEOS4_
	movq	%rax, %rsi
	leaq	-24(%rbp), %rdi
	movq	%rdi, -48(%rbp)                 # 8-byte Spill
	callq	_ZN4seal16MemoryPoolHandleC2EOS0_
	movq	-56(%rbp), %rdi                 # 8-byte Reload
	movq	-48(%rbp), %rsi                 # 8-byte Reload
.Ltmp715:
	callq	_ZN4seal8DynArrayImEC2ENS_16MemoryPoolHandleE
.Ltmp716:
	jmp	.LBB41_1
.LBB41_1:
	leaq	-24(%rbp), %rdi
	callq	_ZN4seal16MemoryPoolHandleD2Ev
	addq	$64, %rsp
	popq	%rbp
	.cfi_def_cfa %rsp, 8
	retq
.LBB41_2:
	.cfi_def_cfa %rbp, 16
.Ltmp717:
	movq	%rax, %rcx
	movl	%edx, %eax
	movq	%rcx, -32(%rbp)
	movl	%eax, -36(%rbp)
	leaq	-24(%rbp), %rdi
	callq	_ZN4seal16MemoryPoolHandleD2Ev
# %bb.3:
	movq	-32(%rbp), %rdi
	callq	_Unwind_Resume@PLT
.Lfunc_end41:
	.size	_ZN4seal9PlaintextC2ENS_16MemoryPoolHandleE, .Lfunc_end41-_ZN4seal9PlaintextC2ENS_16MemoryPoolHandleE
	.cfi_endproc
	.section	.gcc_except_table._ZN4seal9PlaintextC2ENS_16MemoryPoolHandleE,"aG",@progbits,_ZN4seal9PlaintextC2ENS_16MemoryPoolHandleE,comdat
	.p2align	2
GCC_except_table41:
.Lexception19:
	.byte	255                             # @LPStart Encoding = omit
	.byte	255                             # @TType Encoding = omit
	.byte	1                               # Call site Encoding = uleb128
	.uleb128 .Lcst_end19-.Lcst_begin19
.Lcst_begin19:
	.uleb128 .Ltmp715-.Lfunc_begin19        # >> Call Site 1 <<
	.uleb128 .Ltmp716-.Ltmp715              #   Call between .Ltmp715 and .Ltmp716
	.uleb128 .Ltmp717-.Lfunc_begin19        #     jumps to .Ltmp717
	.byte	0                               #   On action: cleanup
	.uleb128 .Ltmp716-.Lfunc_begin19        # >> Call Site 2 <<
	.uleb128 .Lfunc_end41-.Ltmp716          #   Call between .Ltmp716 and .Lfunc_end41
	.byte	0                               #     has no landing pad
	.byte	0                               #   On action: cleanup
.Lcst_end19:
	.p2align	2
                                        # -- End function
	.section	.text._ZN4seal16MemoryPoolHandleD2Ev,"axG",@progbits,_ZN4seal16MemoryPoolHandleD2Ev,comdat
	.weak	_ZN4seal16MemoryPoolHandleD2Ev  # -- Begin function _ZN4seal16MemoryPoolHandleD2Ev
	.p2align	4, 0x90
	.type	_ZN4seal16MemoryPoolHandleD2Ev,@function
_ZN4seal16MemoryPoolHandleD2Ev:         # @_ZN4seal16MemoryPoolHandleD2Ev
	.cfi_startproc
# %bb.0:
	pushq	%rbp
	.cfi_def_cfa_offset 16
	.cfi_offset %rbp, -16
	movq	%rsp, %rbp
	.cfi_def_cfa_register %rbp
	subq	$16, %rsp
	movq	%rdi, -8(%rbp)
	movq	-8(%rbp), %rdi
	callq	_ZNSt10shared_ptrIN4seal4util10MemoryPoolEED2Ev
	addq	$16, %rsp
	popq	%rbp
	.cfi_def_cfa %rsp, 8
	retq
.Lfunc_end42:
	.size	_ZN4seal16MemoryPoolHandleD2Ev, .Lfunc_end42-_ZN4seal16MemoryPoolHandleD2Ev
	.cfi_endproc
                                        # -- End function
	.section	.text._ZN4seal11CKKSEncoder6encodeEddRNS_9PlaintextENS_16MemoryPoolHandleE,"axG",@progbits,_ZN4seal11CKKSEncoder6encodeEddRNS_9PlaintextENS_16MemoryPoolHandleE,comdat
	.weak	_ZN4seal11CKKSEncoder6encodeEddRNS_9PlaintextENS_16MemoryPoolHandleE # -- Begin function _ZN4seal11CKKSEncoder6encodeEddRNS_9PlaintextENS_16MemoryPoolHandleE
	.p2align	4, 0x90
	.type	_ZN4seal11CKKSEncoder6encodeEddRNS_9PlaintextENS_16MemoryPoolHandleE,@function
_ZN4seal11CKKSEncoder6encodeEddRNS_9PlaintextENS_16MemoryPoolHandleE: # @_ZN4seal11CKKSEncoder6encodeEddRNS_9PlaintextENS_16MemoryPoolHandleE
.Lfunc_begin20:
	.cfi_startproc
	.cfi_personality 155, DW.ref.__gxx_personality_v0
	.cfi_lsda 27, .Lexception20
# %bb.0:
	pushq	%rbp
	.cfi_def_cfa_offset 16
	.cfi_offset %rbp, -16
	movq	%rsp, %rbp
	.cfi_def_cfa_register %rbp
	subq	$176, %rsp
	movq	%rdx, -144(%rbp)                # 8-byte Spill
	movq	%rdi, -8(%rbp)
	movsd	%xmm0, -16(%rbp)
	movsd	%xmm1, -24(%rbp)
	movq	%rsi, -32(%rbp)
	movq	-8(%rbp), %rdi
	movq	%rdi, -136(%rbp)                # 8-byte Spill
	movsd	-16(%rbp), %xmm0                # xmm0 = mem[0],zero
	movsd	%xmm0, -128(%rbp)               # 8-byte Spill
	addq	$16, %rdi
	callq	_ZNK4seal11SEALContext14first_parms_idEv
	movq	-144(%rbp), %rdi                # 8-byte Reload
	movups	(%rax), %xmm0
	movups	16(%rax), %xmm1
	movaps	%xmm1, -48(%rbp)
	movaps	%xmm0, -64(%rbp)
	movsd	-24(%rbp), %xmm0                # xmm0 = mem[0],zero
	movsd	%xmm0, -120(%rbp)               # 8-byte Spill
	movq	-32(%rbp), %rax
	movq	%rax, -112(%rbp)                # 8-byte Spill
	callq	_ZSt4moveIRN4seal16MemoryPoolHandleEEONSt16remove_referenceIT_E4typeEOS4_
	movq	%rax, %rsi
	leaq	-80(%rbp), %rdi
	movq	%rdi, -104(%rbp)                # 8-byte Spill
	callq	_ZN4seal16MemoryPoolHandleC2EOS0_
	movq	-136(%rbp), %rdi                # 8-byte Reload
	movsd	-128(%rbp), %xmm0               # 8-byte Reload
                                        # xmm0 = mem[0],zero
	movsd	-120(%rbp), %xmm1               # 8-byte Reload
                                        # xmm1 = mem[0],zero
	movq	-112(%rbp), %rsi                # 8-byte Reload
	movq	-104(%rbp), %rdx                # 8-byte Reload
.Ltmp718:
	movaps	-64(%rbp), %xmm2
	movaps	-48(%rbp), %xmm3
	movq	%rsp, %rax
	movups	%xmm3, 16(%rax)
	movups	%xmm2, (%rax)
	callq	_ZN4seal11CKKSEncoder6encodeEdSt5arrayImLm4EEdRNS_9PlaintextENS_16MemoryPoolHandleE
.Ltmp719:
	jmp	.LBB43_1
.LBB43_1:
	leaq	-80(%rbp), %rdi
	callq	_ZN4seal16MemoryPoolHandleD2Ev
	addq	$176, %rsp
	popq	%rbp
	.cfi_def_cfa %rsp, 8
	retq
.LBB43_2:
	.cfi_def_cfa %rbp, 16
.Ltmp720:
	movq	%rax, %rcx
	movl	%edx, %eax
	movq	%rcx, -88(%rbp)
	movl	%eax, -92(%rbp)
	leaq	-80(%rbp), %rdi
	callq	_ZN4seal16MemoryPoolHandleD2Ev
# %bb.3:
	movq	-88(%rbp), %rdi
	callq	_Unwind_Resume@PLT
.Lfunc_end43:
	.size	_ZN4seal11CKKSEncoder6encodeEddRNS_9PlaintextENS_16MemoryPoolHandleE, .Lfunc_end43-_ZN4seal11CKKSEncoder6encodeEddRNS_9PlaintextENS_16MemoryPoolHandleE
	.cfi_endproc
	.section	.gcc_except_table._ZN4seal11CKKSEncoder6encodeEddRNS_9PlaintextENS_16MemoryPoolHandleE,"aG",@progbits,_ZN4seal11CKKSEncoder6encodeEddRNS_9PlaintextENS_16MemoryPoolHandleE,comdat
	.p2align	2
GCC_except_table43:
.Lexception20:
	.byte	255                             # @LPStart Encoding = omit
	.byte	255                             # @TType Encoding = omit
	.byte	1                               # Call site Encoding = uleb128
	.uleb128 .Lcst_end20-.Lcst_begin20
.Lcst_begin20:
	.uleb128 .Ltmp718-.Lfunc_begin20        # >> Call Site 1 <<
	.uleb128 .Ltmp719-.Ltmp718              #   Call between .Ltmp718 and .Ltmp719
	.uleb128 .Ltmp720-.Lfunc_begin20        #     jumps to .Ltmp720
	.byte	0                               #   On action: cleanup
	.uleb128 .Ltmp719-.Lfunc_begin20        # >> Call Site 2 <<
	.uleb128 .Lfunc_end43-.Ltmp719          #   Call between .Ltmp719 and .Lfunc_end43
	.byte	0                               #     has no landing pad
	.byte	0                               #   On action: cleanup
.Lcst_end20:
	.p2align	2
                                        # -- End function
	.section	.text._Z10print_linei,"axG",@progbits,_Z10print_linei,comdat
	.weak	_Z10print_linei                 # -- Begin function _Z10print_linei
	.p2align	4, 0x90
	.type	_Z10print_linei,@function
_Z10print_linei:                        # @_Z10print_linei
	.cfi_startproc
# %bb.0:
	pushq	%rbp
	.cfi_def_cfa_offset 16
	.cfi_offset %rbp, -16
	movq	%rsp, %rbp
	.cfi_def_cfa_register %rbp
	subq	$16, %rsp
	movl	%edi, -4(%rbp)
	movq	_ZSt4cout@GOTPCREL(%rip), %rdi
	leaq	.L.str.61(%rip), %rsi
	callq	_ZStlsISt11char_traitsIcEERSt13basic_ostreamIcT_ES5_PKc@PLT
	movq	%rax, -16(%rbp)                 # 8-byte Spill
	movl	$3, %edi
	callq	_ZSt4setwi
	movq	-16(%rbp), %rdi                 # 8-byte Reload
	movl	%eax, -8(%rbp)
	movl	-8(%rbp), %esi
	callq	_ZStlsIcSt11char_traitsIcEERSt13basic_ostreamIT_T0_ES6_St5_Setw@PLT
	movq	%rax, %rdi
	movl	-4(%rbp), %esi
	callq	_ZNSolsEi@PLT
	movq	%rax, %rdi
	leaq	.L.str.62(%rip), %rsi
	callq	_ZStlsISt11char_traitsIcEERSt13basic_ostreamIcT_ES5_PKc@PLT
	addq	$16, %rsp
	popq	%rbp
	.cfi_def_cfa %rsp, 8
	retq
.Lfunc_end44:
	.size	_Z10print_linei, .Lfunc_end44-_Z10print_linei
	.cfi_endproc
                                        # -- End function
	.section	.text._ZN4seal11CKKSEncoder6encodeIdvEEvRKSt6vectorIT_SaIS3_EEdRNS_9PlaintextENS_16MemoryPoolHandleE,"axG",@progbits,_ZN4seal11CKKSEncoder6encodeIdvEEvRKSt6vectorIT_SaIS3_EEdRNS_9PlaintextENS_16MemoryPoolHandleE,comdat
	.weak	_ZN4seal11CKKSEncoder6encodeIdvEEvRKSt6vectorIT_SaIS3_EEdRNS_9PlaintextENS_16MemoryPoolHandleE # -- Begin function _ZN4seal11CKKSEncoder6encodeIdvEEvRKSt6vectorIT_SaIS3_EEdRNS_9PlaintextENS_16MemoryPoolHandleE
	.p2align	4, 0x90
	.type	_ZN4seal11CKKSEncoder6encodeIdvEEvRKSt6vectorIT_SaIS3_EEdRNS_9PlaintextENS_16MemoryPoolHandleE,@function
_ZN4seal11CKKSEncoder6encodeIdvEEvRKSt6vectorIT_SaIS3_EEdRNS_9PlaintextENS_16MemoryPoolHandleE: # @_ZN4seal11CKKSEncoder6encodeIdvEEvRKSt6vectorIT_SaIS3_EEdRNS_9PlaintextENS_16MemoryPoolHandleE
.Lfunc_begin21:
	.cfi_startproc
	.cfi_personality 155, DW.ref.__gxx_personality_v0
	.cfi_lsda 27, .Lexception21
# %bb.0:
	pushq	%rbp
	.cfi_def_cfa_offset 16
	.cfi_offset %rbp, -16
	movq	%rsp, %rbp
	.cfi_def_cfa_register %rbp
	subq	$176, %rsp
	movq	%rcx, -144(%rbp)                # 8-byte Spill
	movq	%rdi, -8(%rbp)
	movq	%rsi, -16(%rbp)
	movsd	%xmm0, -24(%rbp)
	movq	%rdx, -32(%rbp)
	movq	-8(%rbp), %rdi
	movq	%rdi, -136(%rbp)                # 8-byte Spill
	movq	-16(%rbp), %rax
	movq	%rax, -128(%rbp)                # 8-byte Spill
	addq	$16, %rdi
	callq	_ZNK4seal11SEALContext14first_parms_idEv
	movq	-144(%rbp), %rdi                # 8-byte Reload
	movups	(%rax), %xmm0
	movups	16(%rax), %xmm1
	movaps	%xmm1, -48(%rbp)
	movaps	%xmm0, -64(%rbp)
	movsd	-24(%rbp), %xmm0                # xmm0 = mem[0],zero
	movsd	%xmm0, -120(%rbp)               # 8-byte Spill
	movq	-32(%rbp), %rax
	movq	%rax, -112(%rbp)                # 8-byte Spill
	callq	_ZSt4moveIRN4seal16MemoryPoolHandleEEONSt16remove_referenceIT_E4typeEOS4_
	movq	%rax, %rsi
	leaq	-80(%rbp), %rdi
	movq	%rdi, -104(%rbp)                # 8-byte Spill
	callq	_ZN4seal16MemoryPoolHandleC2EOS0_
	movq	-136(%rbp), %rdi                # 8-byte Reload
	movq	-128(%rbp), %rsi                # 8-byte Reload
	movsd	-120(%rbp), %xmm0               # 8-byte Reload
                                        # xmm0 = mem[0],zero
	movq	-112(%rbp), %rdx                # 8-byte Reload
	movq	-104(%rbp), %rcx                # 8-byte Reload
.Ltmp721:
	movaps	-64(%rbp), %xmm1
	movaps	-48(%rbp), %xmm2
	movq	%rsp, %rax
	movups	%xmm2, 16(%rax)
	movups	%xmm1, (%rax)
	callq	_ZN4seal11CKKSEncoder6encodeIdvEEvRKSt6vectorIT_SaIS3_EESt5arrayImLm4EEdRNS_9PlaintextENS_16MemoryPoolHandleE
.Ltmp722:
	jmp	.LBB45_1
.LBB45_1:
	leaq	-80(%rbp), %rdi
	callq	_ZN4seal16MemoryPoolHandleD2Ev
	addq	$176, %rsp
	popq	%rbp
	.cfi_def_cfa %rsp, 8
	retq
.LBB45_2:
	.cfi_def_cfa %rbp, 16
.Ltmp723:
	movq	%rax, %rcx
	movl	%edx, %eax
	movq	%rcx, -88(%rbp)
	movl	%eax, -92(%rbp)
	leaq	-80(%rbp), %rdi
	callq	_ZN4seal16MemoryPoolHandleD2Ev
# %bb.3:
	movq	-88(%rbp), %rdi
	callq	_Unwind_Resume@PLT
.Lfunc_end45:
	.size	_ZN4seal11CKKSEncoder6encodeIdvEEvRKSt6vectorIT_SaIS3_EEdRNS_9PlaintextENS_16MemoryPoolHandleE, .Lfunc_end45-_ZN4seal11CKKSEncoder6encodeIdvEEvRKSt6vectorIT_SaIS3_EEdRNS_9PlaintextENS_16MemoryPoolHandleE
	.cfi_endproc
	.section	.gcc_except_table._ZN4seal11CKKSEncoder6encodeIdvEEvRKSt6vectorIT_SaIS3_EEdRNS_9PlaintextENS_16MemoryPoolHandleE,"aG",@progbits,_ZN4seal11CKKSEncoder6encodeIdvEEvRKSt6vectorIT_SaIS3_EEdRNS_9PlaintextENS_16MemoryPoolHandleE,comdat
	.p2align	2
GCC_except_table45:
.Lexception21:
	.byte	255                             # @LPStart Encoding = omit
	.byte	255                             # @TType Encoding = omit
	.byte	1                               # Call site Encoding = uleb128
	.uleb128 .Lcst_end21-.Lcst_begin21
.Lcst_begin21:
	.uleb128 .Ltmp721-.Lfunc_begin21        # >> Call Site 1 <<
	.uleb128 .Ltmp722-.Ltmp721              #   Call between .Ltmp721 and .Ltmp722
	.uleb128 .Ltmp723-.Lfunc_begin21        #     jumps to .Ltmp723
	.byte	0                               #   On action: cleanup
	.uleb128 .Ltmp722-.Lfunc_begin21        # >> Call Site 2 <<
	.uleb128 .Lfunc_end45-.Ltmp722          #   Call between .Ltmp722 and .Lfunc_end45
	.byte	0                               #     has no landing pad
	.byte	0                               #   On action: cleanup
.Lcst_end21:
	.p2align	2
                                        # -- End function
	.section	.text._ZN4seal10CiphertextC2ENS_16MemoryPoolHandleE,"axG",@progbits,_ZN4seal10CiphertextC2ENS_16MemoryPoolHandleE,comdat
	.weak	_ZN4seal10CiphertextC2ENS_16MemoryPoolHandleE # -- Begin function _ZN4seal10CiphertextC2ENS_16MemoryPoolHandleE
	.p2align	4, 0x90
	.type	_ZN4seal10CiphertextC2ENS_16MemoryPoolHandleE,@function
_ZN4seal10CiphertextC2ENS_16MemoryPoolHandleE: # @_ZN4seal10CiphertextC2ENS_16MemoryPoolHandleE
.Lfunc_begin22:
	.cfi_startproc
	.cfi_personality 155, DW.ref.__gxx_personality_v0
	.cfi_lsda 27, .Lexception22
# %bb.0:
	pushq	%rbp
	.cfi_def_cfa_offset 16
	.cfi_offset %rbp, -16
	movq	%rsp, %rbp
	.cfi_def_cfa_register %rbp
	subq	$80, %rsp
	movq	%rsi, -72(%rbp)                 # 8-byte Spill
	movq	%rdi, %rax
	movq	-72(%rbp), %rdi                 # 8-byte Reload
	movq	%rax, -8(%rbp)
	movq	-8(%rbp), %rax
	movq	%rax, -64(%rbp)                 # 8-byte Spill
	movq	_ZN4seal13parms_id_zeroE@GOTPCREL(%rip), %rcx
	movups	(%rcx), %xmm0
	movups	16(%rcx), %xmm1
	movups	%xmm1, 16(%rax)
	movups	%xmm0, (%rax)
	movb	$0, 32(%rax)
	movq	$0, 40(%rax)
	movq	$0, 48(%rax)
	movq	$0, 56(%rax)
	movabsq	$4607182418800017408, %rcx      # imm = 0x3FF0000000000000
	movq	%rcx, 64(%rax)
	addq	$72, %rax
	movq	%rax, -56(%rbp)                 # 8-byte Spill
	callq	_ZSt4moveIRN4seal16MemoryPoolHandleEEONSt16remove_referenceIT_E4typeEOS4_
	movq	%rax, %rsi
	leaq	-24(%rbp), %rdi
	movq	%rdi, -48(%rbp)                 # 8-byte Spill
	callq	_ZN4seal16MemoryPoolHandleC2EOS0_
	movq	-56(%rbp), %rdi                 # 8-byte Reload
	movq	-48(%rbp), %rsi                 # 8-byte Reload
.Ltmp724:
	callq	_ZN4seal8DynArrayImEC2ENS_16MemoryPoolHandleE
.Ltmp725:
	jmp	.LBB46_1
.LBB46_1:
	leaq	-24(%rbp), %rdi
	callq	_ZN4seal16MemoryPoolHandleD2Ev
	addq	$80, %rsp
	popq	%rbp
	.cfi_def_cfa %rsp, 8
	retq
.LBB46_2:
	.cfi_def_cfa %rbp, 16
.Ltmp726:
	movq	%rax, %rcx
	movl	%edx, %eax
	movq	%rcx, -32(%rbp)
	movl	%eax, -36(%rbp)
	leaq	-24(%rbp), %rdi
	callq	_ZN4seal16MemoryPoolHandleD2Ev
# %bb.3:
	movq	-32(%rbp), %rdi
	callq	_Unwind_Resume@PLT
.Lfunc_end46:
	.size	_ZN4seal10CiphertextC2ENS_16MemoryPoolHandleE, .Lfunc_end46-_ZN4seal10CiphertextC2ENS_16MemoryPoolHandleE
	.cfi_endproc
	.section	.gcc_except_table._ZN4seal10CiphertextC2ENS_16MemoryPoolHandleE,"aG",@progbits,_ZN4seal10CiphertextC2ENS_16MemoryPoolHandleE,comdat
	.p2align	2
GCC_except_table46:
.Lexception22:
	.byte	255                             # @LPStart Encoding = omit
	.byte	255                             # @TType Encoding = omit
	.byte	1                               # Call site Encoding = uleb128
	.uleb128 .Lcst_end22-.Lcst_begin22
.Lcst_begin22:
	.uleb128 .Ltmp724-.Lfunc_begin22        # >> Call Site 1 <<
	.uleb128 .Ltmp725-.Ltmp724              #   Call between .Ltmp724 and .Ltmp725
	.uleb128 .Ltmp726-.Lfunc_begin22        #     jumps to .Ltmp726
	.byte	0                               #   On action: cleanup
	.uleb128 .Ltmp725-.Lfunc_begin22        # >> Call Site 2 <<
	.uleb128 .Lfunc_end46-.Ltmp725          #   Call between .Ltmp725 and .Lfunc_end46
	.byte	0                               #     has no landing pad
	.byte	0                               #   On action: cleanup
.Lcst_end22:
	.p2align	2
                                        # -- End function
	.section	.text._ZNK4seal9Encryptor7encryptERKNS_9PlaintextERNS_10CiphertextENS_16MemoryPoolHandleE,"axG",@progbits,_ZNK4seal9Encryptor7encryptERKNS_9PlaintextERNS_10CiphertextENS_16MemoryPoolHandleE,comdat
	.weak	_ZNK4seal9Encryptor7encryptERKNS_9PlaintextERNS_10CiphertextENS_16MemoryPoolHandleE # -- Begin function _ZNK4seal9Encryptor7encryptERKNS_9PlaintextERNS_10CiphertextENS_16MemoryPoolHandleE
	.p2align	4, 0x90
	.type	_ZNK4seal9Encryptor7encryptERKNS_9PlaintextERNS_10CiphertextENS_16MemoryPoolHandleE,@function
_ZNK4seal9Encryptor7encryptERKNS_9PlaintextERNS_10CiphertextENS_16MemoryPoolHandleE: # @_ZNK4seal9Encryptor7encryptERKNS_9PlaintextERNS_10CiphertextENS_16MemoryPoolHandleE
.Lfunc_begin23:
	.cfi_startproc
	.cfi_personality 155, DW.ref.__gxx_personality_v0
	.cfi_lsda 27, .Lexception23
# %bb.0:
	pushq	%rbp
	.cfi_def_cfa_offset 16
	.cfi_offset %rbp, -16
	movq	%rsp, %rbp
	.cfi_def_cfa_register %rbp
	subq	$96, %rsp
	movq	%rcx, -96(%rbp)                 # 8-byte Spill
	movq	%rsi, %rax
	movq	-96(%rbp), %rsi                 # 8-byte Reload
	movq	%rdi, -8(%rbp)
	movq	%rax, -16(%rbp)
	movq	%rdx, -24(%rbp)
	movq	-8(%rbp), %rax
	movq	%rax, -88(%rbp)                 # 8-byte Spill
	movq	-16(%rbp), %rax
	movq	%rax, -80(%rbp)                 # 8-byte Spill
	movq	-24(%rbp), %rax
	movq	%rax, -72(%rbp)                 # 8-byte Spill
	leaq	-40(%rbp), %rdi
	movq	%rdi, -64(%rbp)                 # 8-byte Spill
	callq	_ZN4seal16MemoryPoolHandleC2ERKS0_
	movq	-88(%rbp), %rdi                 # 8-byte Reload
	movq	-80(%rbp), %rsi                 # 8-byte Reload
